
kernel/kernel:     file format elf64-littleriscv


Disassembly of section .text:

0000000080000000 <_entry>:
    80000000:	00009117          	auipc	sp,0x9
    80000004:	a8010113          	addi	sp,sp,-1408 # 80008a80 <stack0>
    80000008:	6505                	lui	a0,0x1
    8000000a:	f14025f3          	csrr	a1,mhartid
    8000000e:	0585                	addi	a1,a1,1
    80000010:	02b50533          	mul	a0,a0,a1
    80000014:	912a                	add	sp,sp,a0
    80000016:	04a000ef          	jal	80000060 <start>

000000008000001a <spin>:
    8000001a:	a001                	j	8000001a <spin>

000000008000001c <timerinit>:
}

// ask each hart to generate timer interrupts.
void
timerinit()
{
    8000001c:	1141                	addi	sp,sp,-16
    8000001e:	e422                	sd	s0,8(sp)
    80000020:	0800                	addi	s0,sp,16
#define MIE_STIE (1L << 5)  // supervisor timer
static inline uint64
r_mie()
{
  uint64 x;
  asm volatile("csrr %0, mie" : "=r" (x) );
    80000022:	304027f3          	csrr	a5,mie
  // enable supervisor-mode timer interrupts.
  w_mie(r_mie() | MIE_STIE);
    80000026:	0207e793          	ori	a5,a5,32
}

static inline void 
w_mie(uint64 x)
{
  asm volatile("csrw mie, %0" : : "r" (x));
    8000002a:	30479073          	csrw	mie,a5
static inline uint64
r_menvcfg()
{
  uint64 x;
  // asm volatile("csrr %0, menvcfg" : "=r" (x) );
  asm volatile("csrr %0, 0x30a" : "=r" (x) );
    8000002e:	30a027f3          	csrr	a5,0x30a
  
  // enable the sstc extension (i.e. stimecmp).
  w_menvcfg(r_menvcfg() | (1L << 63)); 
    80000032:	577d                	li	a4,-1
    80000034:	177e                	slli	a4,a4,0x3f
    80000036:	8fd9                	or	a5,a5,a4

static inline void 
w_menvcfg(uint64 x)
{
  // asm volatile("csrw menvcfg, %0" : : "r" (x));
  asm volatile("csrw 0x30a, %0" : : "r" (x));
    80000038:	30a79073          	csrw	0x30a,a5

static inline uint64
r_mcounteren()
{
  uint64 x;
  asm volatile("csrr %0, mcounteren" : "=r" (x) );
    8000003c:	306027f3          	csrr	a5,mcounteren
  
  // allow supervisor to use stimecmp and time.
  w_mcounteren(r_mcounteren() | 2);
    80000040:	0027e793          	ori	a5,a5,2
  asm volatile("csrw mcounteren, %0" : : "r" (x));
    80000044:	30679073          	csrw	mcounteren,a5
// machine-mode cycle counter
static inline uint64
r_time()
{
  uint64 x;
  asm volatile("csrr %0, time" : "=r" (x) );
    80000048:	c01027f3          	rdtime	a5
  
  // ask for the very first timer interrupt.
  w_stimecmp(r_time() + 1000000);
    8000004c:	000f4737          	lui	a4,0xf4
    80000050:	24070713          	addi	a4,a4,576 # f4240 <_entry-0x7ff0bdc0>
    80000054:	97ba                	add	a5,a5,a4
  asm volatile("csrw 0x14d, %0" : : "r" (x));
    80000056:	14d79073          	csrw	stimecmp,a5
}
    8000005a:	6422                	ld	s0,8(sp)
    8000005c:	0141                	addi	sp,sp,16
    8000005e:	8082                	ret

0000000080000060 <start>:
{
    80000060:	1141                	addi	sp,sp,-16
    80000062:	e406                	sd	ra,8(sp)
    80000064:	e022                	sd	s0,0(sp)
    80000066:	0800                	addi	s0,sp,16
  asm volatile("csrr %0, mstatus" : "=r" (x) );
    80000068:	300027f3          	csrr	a5,mstatus
  x &= ~MSTATUS_MPP_MASK;
    8000006c:	7779                	lui	a4,0xffffe
    8000006e:	7ff70713          	addi	a4,a4,2047 # ffffffffffffe7ff <end+0xffffffff7fe4471f>
    80000072:	8ff9                	and	a5,a5,a4
  x |= MSTATUS_MPP_S;
    80000074:	6705                	lui	a4,0x1
    80000076:	80070713          	addi	a4,a4,-2048 # 800 <_entry-0x7ffff800>
    8000007a:	8fd9                	or	a5,a5,a4
  asm volatile("csrw mstatus, %0" : : "r" (x));
    8000007c:	30079073          	csrw	mstatus,a5
  asm volatile("csrw mepc, %0" : : "r" (x));
    80000080:	00001797          	auipc	a5,0x1
    80000084:	e4678793          	addi	a5,a5,-442 # 80000ec6 <main>
    80000088:	34179073          	csrw	mepc,a5
  asm volatile("csrw satp, %0" : : "r" (x));
    8000008c:	4781                	li	a5,0
    8000008e:	18079073          	csrw	satp,a5
  asm volatile("csrw medeleg, %0" : : "r" (x));
    80000092:	67c1                	lui	a5,0x10
    80000094:	17fd                	addi	a5,a5,-1 # ffff <_entry-0x7fff0001>
    80000096:	30279073          	csrw	medeleg,a5
  asm volatile("csrw mideleg, %0" : : "r" (x));
    8000009a:	30379073          	csrw	mideleg,a5
  asm volatile("csrr %0, sie" : "=r" (x) );
    8000009e:	104027f3          	csrr	a5,sie
  w_sie(r_sie() | SIE_SEIE | SIE_STIE | SIE_SSIE);
    800000a2:	2227e793          	ori	a5,a5,546
  asm volatile("csrw sie, %0" : : "r" (x));
    800000a6:	10479073          	csrw	sie,a5
  asm volatile("csrw pmpaddr0, %0" : : "r" (x));
    800000aa:	57fd                	li	a5,-1
    800000ac:	83a9                	srli	a5,a5,0xa
    800000ae:	3b079073          	csrw	pmpaddr0,a5
  asm volatile("csrw pmpcfg0, %0" : : "r" (x));
    800000b2:	47bd                	li	a5,15
    800000b4:	3a079073          	csrw	pmpcfg0,a5
  timerinit();
    800000b8:	f65ff0ef          	jal	8000001c <timerinit>
  asm volatile("csrr %0, mhartid" : "=r" (x) );
    800000bc:	f14027f3          	csrr	a5,mhartid
  w_tp(id);
    800000c0:	2781                	sext.w	a5,a5
}

static inline void 
w_tp(uint64 x)
{
  asm volatile("mv tp, %0" : : "r" (x));
    800000c2:	823e                	mv	tp,a5
  asm volatile("mret");
    800000c4:	30200073          	mret
}
    800000c8:	60a2                	ld	ra,8(sp)
    800000ca:	6402                	ld	s0,0(sp)
    800000cc:	0141                	addi	sp,sp,16
    800000ce:	8082                	ret

00000000800000d0 <consolewrite>:
//
// user write()s to the console go here.
//
int
consolewrite(int user_src, uint64 src, int n)
{
    800000d0:	715d                	addi	sp,sp,-80
    800000d2:	e486                	sd	ra,72(sp)
    800000d4:	e0a2                	sd	s0,64(sp)
    800000d6:	f84a                	sd	s2,48(sp)
    800000d8:	0880                	addi	s0,sp,80
  int i;

  for(i = 0; i < n; i++){
    800000da:	04c05263          	blez	a2,8000011e <consolewrite+0x4e>
    800000de:	fc26                	sd	s1,56(sp)
    800000e0:	f44e                	sd	s3,40(sp)
    800000e2:	f052                	sd	s4,32(sp)
    800000e4:	ec56                	sd	s5,24(sp)
    800000e6:	8a2a                	mv	s4,a0
    800000e8:	84ae                	mv	s1,a1
    800000ea:	89b2                	mv	s3,a2
    800000ec:	4901                	li	s2,0
    char c;
    if(either_copyin(&c, user_src, src+i, 1) == -1)
    800000ee:	5afd                	li	s5,-1
    800000f0:	4685                	li	a3,1
    800000f2:	8626                	mv	a2,s1
    800000f4:	85d2                	mv	a1,s4
    800000f6:	fbf40513          	addi	a0,s0,-65
    800000fa:	0c5020ef          	jal	800029be <either_copyin>
    800000fe:	03550263          	beq	a0,s5,80000122 <consolewrite+0x52>
      break;
    uartputc(c);
    80000102:	fbf44503          	lbu	a0,-65(s0)
    80000106:	099000ef          	jal	8000099e <uartputc>
  for(i = 0; i < n; i++){
    8000010a:	2905                	addiw	s2,s2,1
    8000010c:	0485                	addi	s1,s1,1
    8000010e:	ff2991e3          	bne	s3,s2,800000f0 <consolewrite+0x20>
    80000112:	894e                	mv	s2,s3
    80000114:	74e2                	ld	s1,56(sp)
    80000116:	79a2                	ld	s3,40(sp)
    80000118:	7a02                	ld	s4,32(sp)
    8000011a:	6ae2                	ld	s5,24(sp)
    8000011c:	a039                	j	8000012a <consolewrite+0x5a>
    8000011e:	4901                	li	s2,0
    80000120:	a029                	j	8000012a <consolewrite+0x5a>
    80000122:	74e2                	ld	s1,56(sp)
    80000124:	79a2                	ld	s3,40(sp)
    80000126:	7a02                	ld	s4,32(sp)
    80000128:	6ae2                	ld	s5,24(sp)
  }

  return i;
}
    8000012a:	854a                	mv	a0,s2
    8000012c:	60a6                	ld	ra,72(sp)
    8000012e:	6406                	ld	s0,64(sp)
    80000130:	7942                	ld	s2,48(sp)
    80000132:	6161                	addi	sp,sp,80
    80000134:	8082                	ret

0000000080000136 <consoleread>:
// user_dist indicates whether dst is a user
// or kernel address.
//
int
consoleread(int user_dst, uint64 dst, int n)
{
    80000136:	711d                	addi	sp,sp,-96
    80000138:	ec86                	sd	ra,88(sp)
    8000013a:	e8a2                	sd	s0,80(sp)
    8000013c:	e4a6                	sd	s1,72(sp)
    8000013e:	e0ca                	sd	s2,64(sp)
    80000140:	fc4e                	sd	s3,56(sp)
    80000142:	f852                	sd	s4,48(sp)
    80000144:	f456                	sd	s5,40(sp)
    80000146:	f05a                	sd	s6,32(sp)
    80000148:	1080                	addi	s0,sp,96
    8000014a:	8aaa                	mv	s5,a0
    8000014c:	8a2e                	mv	s4,a1
    8000014e:	89b2                	mv	s3,a2
  uint target;
  int c;
  char cbuf;

  target = n;
    80000150:	00060b1b          	sext.w	s6,a2
  acquire(&cons.lock);
    80000154:	00011517          	auipc	a0,0x11
    80000158:	92c50513          	addi	a0,a0,-1748 # 80010a80 <cons>
    8000015c:	2fd000ef          	jal	80000c58 <acquire>
  while(n > 0){
    // wait until interrupt handler has put some
    // input into cons.buffer.
    while(cons.r == cons.w){
    80000160:	00011497          	auipc	s1,0x11
    80000164:	92048493          	addi	s1,s1,-1760 # 80010a80 <cons>
      if(killed(myproc())){
        release(&cons.lock);
        return -1;
      }
      sleep(&cons.r, &cons.lock);
    80000168:	00011917          	auipc	s2,0x11
    8000016c:	9b090913          	addi	s2,s2,-1616 # 80010b18 <cons+0x98>
  while(n > 0){
    80000170:	0b305d63          	blez	s3,8000022a <consoleread+0xf4>
    while(cons.r == cons.w){
    80000174:	0984a783          	lw	a5,152(s1)
    80000178:	09c4a703          	lw	a4,156(s1)
    8000017c:	0af71263          	bne	a4,a5,80000220 <consoleread+0xea>
      if(killed(myproc())){
    80000180:	6af010ef          	jal	8000202e <myproc>
    80000184:	6cc020ef          	jal	80002850 <killed>
    80000188:	e12d                	bnez	a0,800001ea <consoleread+0xb4>
      sleep(&cons.r, &cons.lock);
    8000018a:	85a6                	mv	a1,s1
    8000018c:	854a                	mv	a0,s2
    8000018e:	48a020ef          	jal	80002618 <sleep>
    while(cons.r == cons.w){
    80000192:	0984a783          	lw	a5,152(s1)
    80000196:	09c4a703          	lw	a4,156(s1)
    8000019a:	fef703e3          	beq	a4,a5,80000180 <consoleread+0x4a>
    8000019e:	ec5e                	sd	s7,24(sp)
    }

    c = cons.buf[cons.r++ % INPUT_BUF_SIZE];
    800001a0:	00011717          	auipc	a4,0x11
    800001a4:	8e070713          	addi	a4,a4,-1824 # 80010a80 <cons>
    800001a8:	0017869b          	addiw	a3,a5,1
    800001ac:	08d72c23          	sw	a3,152(a4)
    800001b0:	07f7f693          	andi	a3,a5,127
    800001b4:	9736                	add	a4,a4,a3
    800001b6:	01874703          	lbu	a4,24(a4)
    800001ba:	00070b9b          	sext.w	s7,a4

    if(c == C('D')){  // end-of-file
    800001be:	4691                	li	a3,4
    800001c0:	04db8663          	beq	s7,a3,8000020c <consoleread+0xd6>
      }
      break;
    }

    // copy the input byte to the user-space buffer.
    cbuf = c;
    800001c4:	fae407a3          	sb	a4,-81(s0)
    if(either_copyout(user_dst, dst, &cbuf, 1) == -1)
    800001c8:	4685                	li	a3,1
    800001ca:	faf40613          	addi	a2,s0,-81
    800001ce:	85d2                	mv	a1,s4
    800001d0:	8556                	mv	a0,s5
    800001d2:	7a2020ef          	jal	80002974 <either_copyout>
    800001d6:	57fd                	li	a5,-1
    800001d8:	04f50863          	beq	a0,a5,80000228 <consoleread+0xf2>
      break;

    dst++;
    800001dc:	0a05                	addi	s4,s4,1
    --n;
    800001de:	39fd                	addiw	s3,s3,-1

    if(c == '\n'){
    800001e0:	47a9                	li	a5,10
    800001e2:	04fb8d63          	beq	s7,a5,8000023c <consoleread+0x106>
    800001e6:	6be2                	ld	s7,24(sp)
    800001e8:	b761                	j	80000170 <consoleread+0x3a>
        release(&cons.lock);
    800001ea:	00011517          	auipc	a0,0x11
    800001ee:	89650513          	addi	a0,a0,-1898 # 80010a80 <cons>
    800001f2:	2ff000ef          	jal	80000cf0 <release>
        return -1;
    800001f6:	557d                	li	a0,-1
    }
  }
  release(&cons.lock);

  return target - n;
}
    800001f8:	60e6                	ld	ra,88(sp)
    800001fa:	6446                	ld	s0,80(sp)
    800001fc:	64a6                	ld	s1,72(sp)
    800001fe:	6906                	ld	s2,64(sp)
    80000200:	79e2                	ld	s3,56(sp)
    80000202:	7a42                	ld	s4,48(sp)
    80000204:	7aa2                	ld	s5,40(sp)
    80000206:	7b02                	ld	s6,32(sp)
    80000208:	6125                	addi	sp,sp,96
    8000020a:	8082                	ret
      if(n < target){
    8000020c:	0009871b          	sext.w	a4,s3
    80000210:	01677a63          	bgeu	a4,s6,80000224 <consoleread+0xee>
        cons.r--;
    80000214:	00011717          	auipc	a4,0x11
    80000218:	90f72223          	sw	a5,-1788(a4) # 80010b18 <cons+0x98>
    8000021c:	6be2                	ld	s7,24(sp)
    8000021e:	a031                	j	8000022a <consoleread+0xf4>
    80000220:	ec5e                	sd	s7,24(sp)
    80000222:	bfbd                	j	800001a0 <consoleread+0x6a>
    80000224:	6be2                	ld	s7,24(sp)
    80000226:	a011                	j	8000022a <consoleread+0xf4>
    80000228:	6be2                	ld	s7,24(sp)
  release(&cons.lock);
    8000022a:	00011517          	auipc	a0,0x11
    8000022e:	85650513          	addi	a0,a0,-1962 # 80010a80 <cons>
    80000232:	2bf000ef          	jal	80000cf0 <release>
  return target - n;
    80000236:	413b053b          	subw	a0,s6,s3
    8000023a:	bf7d                	j	800001f8 <consoleread+0xc2>
    8000023c:	6be2                	ld	s7,24(sp)
    8000023e:	b7f5                	j	8000022a <consoleread+0xf4>

0000000080000240 <consputc>:
{
    80000240:	1141                	addi	sp,sp,-16
    80000242:	e406                	sd	ra,8(sp)
    80000244:	e022                	sd	s0,0(sp)
    80000246:	0800                	addi	s0,sp,16
  if(c == BACKSPACE){
    80000248:	10000793          	li	a5,256
    8000024c:	00f50863          	beq	a0,a5,8000025c <consputc+0x1c>
    uartputc_sync(c);
    80000250:	668000ef          	jal	800008b8 <uartputc_sync>
}
    80000254:	60a2                	ld	ra,8(sp)
    80000256:	6402                	ld	s0,0(sp)
    80000258:	0141                	addi	sp,sp,16
    8000025a:	8082                	ret
    uartputc_sync('\b'); uartputc_sync(' '); uartputc_sync('\b');
    8000025c:	4521                	li	a0,8
    8000025e:	65a000ef          	jal	800008b8 <uartputc_sync>
    80000262:	02000513          	li	a0,32
    80000266:	652000ef          	jal	800008b8 <uartputc_sync>
    8000026a:	4521                	li	a0,8
    8000026c:	64c000ef          	jal	800008b8 <uartputc_sync>
    80000270:	b7d5                	j	80000254 <consputc+0x14>

0000000080000272 <consoleintr>:
// do erase/kill processing, append to cons.buf,
// wake up consoleread() if a whole line has arrived.
//
void
consoleintr(int c)
{
    80000272:	1101                	addi	sp,sp,-32
    80000274:	ec06                	sd	ra,24(sp)
    80000276:	e822                	sd	s0,16(sp)
    80000278:	e426                	sd	s1,8(sp)
    8000027a:	1000                	addi	s0,sp,32
    8000027c:	84aa                	mv	s1,a0
  acquire(&cons.lock);
    8000027e:	00011517          	auipc	a0,0x11
    80000282:	80250513          	addi	a0,a0,-2046 # 80010a80 <cons>
    80000286:	1d3000ef          	jal	80000c58 <acquire>

  switch(c){
    8000028a:	47c1                	li	a5,16
    8000028c:	0cf48163          	beq	s1,a5,8000034e <consoleintr+0xdc>
    80000290:	0297dd63          	bge	a5,s1,800002ca <consoleintr+0x58>
    80000294:	47d5                	li	a5,21
    80000296:	06f48463          	beq	s1,a5,800002fe <consoleintr+0x8c>
    8000029a:	07f00793          	li	a5,127
    8000029e:	10f49563          	bne	s1,a5,800003a8 <consoleintr+0x136>
        // Optionally: You can also trigger a signal handler in user space if defined
      }
    }
    break;
  case '\x7f': // Delete key (Backspace)
    if(cons.e != cons.w){
    800002a2:	00010717          	auipc	a4,0x10
    800002a6:	7de70713          	addi	a4,a4,2014 # 80010a80 <cons>
    800002aa:	0a072783          	lw	a5,160(a4)
    800002ae:	09c72703          	lw	a4,156(a4)
    800002b2:	0af70063          	beq	a4,a5,80000352 <consoleintr+0xe0>
      cons.e--;
    800002b6:	37fd                	addiw	a5,a5,-1
    800002b8:	00011717          	auipc	a4,0x11
    800002bc:	86f72423          	sw	a5,-1944(a4) # 80010b20 <cons+0xa0>
      consputc(BACKSPACE);
    800002c0:	10000513          	li	a0,256
    800002c4:	f7dff0ef          	jal	80000240 <consputc>
    800002c8:	a069                	j	80000352 <consoleintr+0xe0>
  switch(c){
    800002ca:	478d                	li	a5,3
    800002cc:	0af48063          	beq	s1,a5,8000036c <consoleintr+0xfa>
    800002d0:	47a1                	li	a5,8
    800002d2:	0cf49a63          	bne	s1,a5,800003a6 <consoleintr+0x134>
    if(cons.e != cons.w){
    800002d6:	00010717          	auipc	a4,0x10
    800002da:	7aa70713          	addi	a4,a4,1962 # 80010a80 <cons>
    800002de:	0a072783          	lw	a5,160(a4)
    800002e2:	09c72703          	lw	a4,156(a4)
    800002e6:	06f70663          	beq	a4,a5,80000352 <consoleintr+0xe0>
      cons.e--;
    800002ea:	37fd                	addiw	a5,a5,-1
    800002ec:	00011717          	auipc	a4,0x11
    800002f0:	82f72a23          	sw	a5,-1996(a4) # 80010b20 <cons+0xa0>
      consputc(BACKSPACE);
    800002f4:	10000513          	li	a0,256
    800002f8:	f49ff0ef          	jal	80000240 <consputc>
    800002fc:	a899                	j	80000352 <consoleintr+0xe0>
    800002fe:	e04a                	sd	s2,0(sp)
    while(cons.e != cons.w &&
    80000300:	00010717          	auipc	a4,0x10
    80000304:	78070713          	addi	a4,a4,1920 # 80010a80 <cons>
    80000308:	0a072783          	lw	a5,160(a4)
    8000030c:	09c72703          	lw	a4,156(a4)
          cons.buf[(cons.e-1) % INPUT_BUF_SIZE] != '\n'){
    80000310:	00010497          	auipc	s1,0x10
    80000314:	77048493          	addi	s1,s1,1904 # 80010a80 <cons>
    while(cons.e != cons.w &&
    80000318:	4929                	li	s2,10
    8000031a:	02f70863          	beq	a4,a5,8000034a <consoleintr+0xd8>
          cons.buf[(cons.e-1) % INPUT_BUF_SIZE] != '\n'){
    8000031e:	37fd                	addiw	a5,a5,-1
    80000320:	07f7f713          	andi	a4,a5,127
    80000324:	9726                	add	a4,a4,s1
    while(cons.e != cons.w &&
    80000326:	01874703          	lbu	a4,24(a4)
    8000032a:	03270f63          	beq	a4,s2,80000368 <consoleintr+0xf6>
      cons.e--;
    8000032e:	0af4a023          	sw	a5,160(s1)
      consputc(BACKSPACE);
    80000332:	10000513          	li	a0,256
    80000336:	f0bff0ef          	jal	80000240 <consputc>
    while(cons.e != cons.w &&
    8000033a:	0a04a783          	lw	a5,160(s1)
    8000033e:	09c4a703          	lw	a4,156(s1)
    80000342:	fcf71ee3          	bne	a4,a5,8000031e <consoleintr+0xac>
    80000346:	6902                	ld	s2,0(sp)
    80000348:	a029                	j	80000352 <consoleintr+0xe0>
    8000034a:	6902                	ld	s2,0(sp)
    8000034c:	a019                	j	80000352 <consoleintr+0xe0>
    procdump();
    8000034e:	6ba020ef          	jal	80002a08 <procdump>
      }
    }
    break;
  }

  release(&cons.lock);
    80000352:	00010517          	auipc	a0,0x10
    80000356:	72e50513          	addi	a0,a0,1838 # 80010a80 <cons>
    8000035a:	197000ef          	jal	80000cf0 <release>
}
    8000035e:	60e2                	ld	ra,24(sp)
    80000360:	6442                	ld	s0,16(sp)
    80000362:	64a2                	ld	s1,8(sp)
    80000364:	6105                	addi	sp,sp,32
    80000366:	8082                	ret
    80000368:	6902                	ld	s2,0(sp)
    8000036a:	b7e5                	j	80000352 <consoleintr+0xe0>
      struct proc *p = myproc();  // Get the current process
    8000036c:	4c3010ef          	jal	8000202e <myproc>
    80000370:	84aa                	mv	s1,a0
      if (p != 0) {  // Ensure the process is valid
    80000372:	d165                	beqz	a0,80000352 <consoleintr+0xe0>
        printf("\nDetected Ctrl+C\n");
    80000374:	00008517          	auipc	a0,0x8
    80000378:	c8c50513          	addi	a0,a0,-884 # 80008000 <etext>
    8000037c:	1aa000ef          	jal	80000526 <printf>
        if(p->sig_handlers[2] != 0){
    80000380:	1884b783          	ld	a5,392(s1)
    80000384:	cf91                	beqz	a5,800003a0 <consoleintr+0x12e>
          printf("Calling custom SIGINT handler\n");
    80000386:	00008517          	auipc	a0,0x8
    8000038a:	c9250513          	addi	a0,a0,-878 # 80008018 <etext+0x18>
    8000038e:	198000ef          	jal	80000526 <printf>
          p->sig_handlers[2](SIGINT);
    80000392:	1884b783          	ld	a5,392(s1)
    80000396:	4509                	li	a0,2
    80000398:	9782                	jalr	a5
        p->killed = 1;  // Set the killed flag to terminate the process
    8000039a:	4785                	li	a5,1
    8000039c:	d49c                	sw	a5,40(s1)
    8000039e:	bf55                	j	80000352 <consoleintr+0xe0>
          sigint_default_handler();
    800003a0:	74e020ef          	jal	80002aee <sigint_default_handler>
    800003a4:	bfdd                	j	8000039a <consoleintr+0x128>
    if(c != 0 && cons.e - cons.r < INPUT_BUF_SIZE){
    800003a6:	d4d5                	beqz	s1,80000352 <consoleintr+0xe0>
    800003a8:	00010717          	auipc	a4,0x10
    800003ac:	6d870713          	addi	a4,a4,1752 # 80010a80 <cons>
    800003b0:	0a072783          	lw	a5,160(a4)
    800003b4:	09872703          	lw	a4,152(a4)
    800003b8:	9f99                	subw	a5,a5,a4
    800003ba:	07f00713          	li	a4,127
    800003be:	f8f76ae3          	bltu	a4,a5,80000352 <consoleintr+0xe0>
      c = (c == '\r') ? '\n' : c;  // Convert carriage return to newline
    800003c2:	47b5                	li	a5,13
    800003c4:	04f48663          	beq	s1,a5,80000410 <consoleintr+0x19e>
      consputc(c);
    800003c8:	8526                	mv	a0,s1
    800003ca:	e77ff0ef          	jal	80000240 <consputc>
      cons.buf[cons.e++ % INPUT_BUF_SIZE] = c;
    800003ce:	00010797          	auipc	a5,0x10
    800003d2:	6b278793          	addi	a5,a5,1714 # 80010a80 <cons>
    800003d6:	0a07a683          	lw	a3,160(a5)
    800003da:	0016871b          	addiw	a4,a3,1
    800003de:	0007061b          	sext.w	a2,a4
    800003e2:	0ae7a023          	sw	a4,160(a5)
    800003e6:	07f6f693          	andi	a3,a3,127
    800003ea:	97b6                	add	a5,a5,a3
    800003ec:	00978c23          	sb	s1,24(a5)
      if(c == '\n' || c == C('D') || cons.e - cons.r == INPUT_BUF_SIZE){
    800003f0:	47a9                	li	a5,10
    800003f2:	04f48463          	beq	s1,a5,8000043a <consoleintr+0x1c8>
    800003f6:	4791                	li	a5,4
    800003f8:	04f48163          	beq	s1,a5,8000043a <consoleintr+0x1c8>
    800003fc:	00010797          	auipc	a5,0x10
    80000400:	71c7a783          	lw	a5,1820(a5) # 80010b18 <cons+0x98>
    80000404:	9f1d                	subw	a4,a4,a5
    80000406:	08000793          	li	a5,128
    8000040a:	f4f714e3          	bne	a4,a5,80000352 <consoleintr+0xe0>
    8000040e:	a035                	j	8000043a <consoleintr+0x1c8>
      consputc(c);
    80000410:	4529                	li	a0,10
    80000412:	e2fff0ef          	jal	80000240 <consputc>
      cons.buf[cons.e++ % INPUT_BUF_SIZE] = c;
    80000416:	00010797          	auipc	a5,0x10
    8000041a:	66a78793          	addi	a5,a5,1642 # 80010a80 <cons>
    8000041e:	0a07a703          	lw	a4,160(a5)
    80000422:	0017069b          	addiw	a3,a4,1
    80000426:	0006861b          	sext.w	a2,a3
    8000042a:	0ad7a023          	sw	a3,160(a5)
    8000042e:	07f77713          	andi	a4,a4,127
    80000432:	97ba                	add	a5,a5,a4
    80000434:	4729                	li	a4,10
    80000436:	00e78c23          	sb	a4,24(a5)
        cons.w = cons.e;
    8000043a:	00010797          	auipc	a5,0x10
    8000043e:	6ec7a123          	sw	a2,1762(a5) # 80010b1c <cons+0x9c>
        wakeup(&cons.r);
    80000442:	00010517          	auipc	a0,0x10
    80000446:	6d650513          	addi	a0,a0,1750 # 80010b18 <cons+0x98>
    8000044a:	21a020ef          	jal	80002664 <wakeup>
    8000044e:	b711                	j	80000352 <consoleintr+0xe0>

0000000080000450 <consoleinit>:



void
consoleinit(void)
{
    80000450:	1141                	addi	sp,sp,-16
    80000452:	e406                	sd	ra,8(sp)
    80000454:	e022                	sd	s0,0(sp)
    80000456:	0800                	addi	s0,sp,16
  initlock(&cons.lock, "cons");
    80000458:	00008597          	auipc	a1,0x8
    8000045c:	be058593          	addi	a1,a1,-1056 # 80008038 <etext+0x38>
    80000460:	00010517          	auipc	a0,0x10
    80000464:	62050513          	addi	a0,a0,1568 # 80010a80 <cons>
    80000468:	770000ef          	jal	80000bd8 <initlock>

  uartinit();
    8000046c:	3f4000ef          	jal	80000860 <uartinit>

  // connect read and write system calls
  // to consoleread and consolewrite.
  devsw[CONSOLE].read = consoleread;
    80000470:	001b9797          	auipc	a5,0x1b9
    80000474:	ad878793          	addi	a5,a5,-1320 # 801b8f48 <devsw>
    80000478:	00000717          	auipc	a4,0x0
    8000047c:	cbe70713          	addi	a4,a4,-834 # 80000136 <consoleread>
    80000480:	eb98                	sd	a4,16(a5)
  devsw[CONSOLE].write = consolewrite;
    80000482:	00000717          	auipc	a4,0x0
    80000486:	c4e70713          	addi	a4,a4,-946 # 800000d0 <consolewrite>
    8000048a:	ef98                	sd	a4,24(a5)
}
    8000048c:	60a2                	ld	ra,8(sp)
    8000048e:	6402                	ld	s0,0(sp)
    80000490:	0141                	addi	sp,sp,16
    80000492:	8082                	ret

0000000080000494 <printint>:

static char digits[] = "0123456789abcdef";

static void
printint(long long xx, int base, int sign)
{
    80000494:	7179                	addi	sp,sp,-48
    80000496:	f406                	sd	ra,40(sp)
    80000498:	f022                	sd	s0,32(sp)
    8000049a:	1800                	addi	s0,sp,48
  char buf[16];
  int i;
  unsigned long long x;

  if(sign && (sign = (xx < 0)))
    8000049c:	c219                	beqz	a2,800004a2 <printint+0xe>
    8000049e:	08054063          	bltz	a0,8000051e <printint+0x8a>
    x = -xx;
  else
    x = xx;
    800004a2:	4881                	li	a7,0
    800004a4:	fd040693          	addi	a3,s0,-48

  i = 0;
    800004a8:	4781                	li	a5,0
  do {
    buf[i++] = digits[x % base];
    800004aa:	00008617          	auipc	a2,0x8
    800004ae:	3e660613          	addi	a2,a2,998 # 80008890 <digits>
    800004b2:	883e                	mv	a6,a5
    800004b4:	2785                	addiw	a5,a5,1
    800004b6:	02b57733          	remu	a4,a0,a1
    800004ba:	9732                	add	a4,a4,a2
    800004bc:	00074703          	lbu	a4,0(a4)
    800004c0:	00e68023          	sb	a4,0(a3)
  } while((x /= base) != 0);
    800004c4:	872a                	mv	a4,a0
    800004c6:	02b55533          	divu	a0,a0,a1
    800004ca:	0685                	addi	a3,a3,1
    800004cc:	feb773e3          	bgeu	a4,a1,800004b2 <printint+0x1e>

  if(sign)
    800004d0:	00088a63          	beqz	a7,800004e4 <printint+0x50>
    buf[i++] = '-';
    800004d4:	1781                	addi	a5,a5,-32
    800004d6:	97a2                	add	a5,a5,s0
    800004d8:	02d00713          	li	a4,45
    800004dc:	fee78823          	sb	a4,-16(a5)
    800004e0:	0028079b          	addiw	a5,a6,2

  while(--i >= 0)
    800004e4:	02f05963          	blez	a5,80000516 <printint+0x82>
    800004e8:	ec26                	sd	s1,24(sp)
    800004ea:	e84a                	sd	s2,16(sp)
    800004ec:	fd040713          	addi	a4,s0,-48
    800004f0:	00f704b3          	add	s1,a4,a5
    800004f4:	fff70913          	addi	s2,a4,-1
    800004f8:	993e                	add	s2,s2,a5
    800004fa:	37fd                	addiw	a5,a5,-1
    800004fc:	1782                	slli	a5,a5,0x20
    800004fe:	9381                	srli	a5,a5,0x20
    80000500:	40f90933          	sub	s2,s2,a5
    consputc(buf[i]);
    80000504:	fff4c503          	lbu	a0,-1(s1)
    80000508:	d39ff0ef          	jal	80000240 <consputc>
  while(--i >= 0)
    8000050c:	14fd                	addi	s1,s1,-1
    8000050e:	ff249be3          	bne	s1,s2,80000504 <printint+0x70>
    80000512:	64e2                	ld	s1,24(sp)
    80000514:	6942                	ld	s2,16(sp)
}
    80000516:	70a2                	ld	ra,40(sp)
    80000518:	7402                	ld	s0,32(sp)
    8000051a:	6145                	addi	sp,sp,48
    8000051c:	8082                	ret
    x = -xx;
    8000051e:	40a00533          	neg	a0,a0
  if(sign && (sign = (xx < 0)))
    80000522:	4885                	li	a7,1
    x = -xx;
    80000524:	b741                	j	800004a4 <printint+0x10>

0000000080000526 <printf>:
}

// Print to the console.
int
printf(char *fmt, ...)
{
    80000526:	7155                	addi	sp,sp,-208
    80000528:	e506                	sd	ra,136(sp)
    8000052a:	e122                	sd	s0,128(sp)
    8000052c:	f0d2                	sd	s4,96(sp)
    8000052e:	0900                	addi	s0,sp,144
    80000530:	8a2a                	mv	s4,a0
    80000532:	e40c                	sd	a1,8(s0)
    80000534:	e810                	sd	a2,16(s0)
    80000536:	ec14                	sd	a3,24(s0)
    80000538:	f018                	sd	a4,32(s0)
    8000053a:	f41c                	sd	a5,40(s0)
    8000053c:	03043823          	sd	a6,48(s0)
    80000540:	03143c23          	sd	a7,56(s0)
  va_list ap;
  int i, cx, c0, c1, c2, locking;
  char *s;

  locking = pr.locking;
    80000544:	00010797          	auipc	a5,0x10
    80000548:	5fc7a783          	lw	a5,1532(a5) # 80010b40 <pr+0x18>
    8000054c:	f6f43c23          	sd	a5,-136(s0)
  if(locking)
    80000550:	e3a1                	bnez	a5,80000590 <printf+0x6a>
    acquire(&pr.lock);

  va_start(ap, fmt);
    80000552:	00840793          	addi	a5,s0,8
    80000556:	f8f43423          	sd	a5,-120(s0)
  for(i = 0; (cx = fmt[i] & 0xff) != 0; i++){
    8000055a:	00054503          	lbu	a0,0(a0)
    8000055e:	26050763          	beqz	a0,800007cc <printf+0x2a6>
    80000562:	fca6                	sd	s1,120(sp)
    80000564:	f8ca                	sd	s2,112(sp)
    80000566:	f4ce                	sd	s3,104(sp)
    80000568:	ecd6                	sd	s5,88(sp)
    8000056a:	e8da                	sd	s6,80(sp)
    8000056c:	e0e2                	sd	s8,64(sp)
    8000056e:	fc66                	sd	s9,56(sp)
    80000570:	f86a                	sd	s10,48(sp)
    80000572:	f46e                	sd	s11,40(sp)
    80000574:	4981                	li	s3,0
    if(cx != '%'){
    80000576:	02500a93          	li	s5,37
    i++;
    c0 = fmt[i+0] & 0xff;
    c1 = c2 = 0;
    if(c0) c1 = fmt[i+1] & 0xff;
    if(c1) c2 = fmt[i+2] & 0xff;
    if(c0 == 'd'){
    8000057a:	06400b13          	li	s6,100
      printint(va_arg(ap, int), 10, 1);
    } else if(c0 == 'l' && c1 == 'd'){
    8000057e:	06c00c13          	li	s8,108
      printint(va_arg(ap, uint64), 10, 1);
      i += 1;
    } else if(c0 == 'l' && c1 == 'l' && c2 == 'd'){
      printint(va_arg(ap, uint64), 10, 1);
      i += 2;
    } else if(c0 == 'u'){
    80000582:	07500c93          	li	s9,117
      printint(va_arg(ap, uint64), 10, 0);
      i += 1;
    } else if(c0 == 'l' && c1 == 'l' && c2 == 'u'){
      printint(va_arg(ap, uint64), 10, 0);
      i += 2;
    } else if(c0 == 'x'){
    80000586:	07800d13          	li	s10,120
      printint(va_arg(ap, uint64), 16, 0);
      i += 1;
    } else if(c0 == 'l' && c1 == 'l' && c2 == 'x'){
      printint(va_arg(ap, uint64), 16, 0);
      i += 2;
    } else if(c0 == 'p'){
    8000058a:	07000d93          	li	s11,112
    8000058e:	a815                	j	800005c2 <printf+0x9c>
    acquire(&pr.lock);
    80000590:	00010517          	auipc	a0,0x10
    80000594:	59850513          	addi	a0,a0,1432 # 80010b28 <pr>
    80000598:	6c0000ef          	jal	80000c58 <acquire>
  va_start(ap, fmt);
    8000059c:	00840793          	addi	a5,s0,8
    800005a0:	f8f43423          	sd	a5,-120(s0)
  for(i = 0; (cx = fmt[i] & 0xff) != 0; i++){
    800005a4:	000a4503          	lbu	a0,0(s4)
    800005a8:	fd4d                	bnez	a0,80000562 <printf+0x3c>
    800005aa:	a481                	j	800007ea <printf+0x2c4>
      consputc(cx);
    800005ac:	c95ff0ef          	jal	80000240 <consputc>
      continue;
    800005b0:	84ce                	mv	s1,s3
  for(i = 0; (cx = fmt[i] & 0xff) != 0; i++){
    800005b2:	0014899b          	addiw	s3,s1,1
    800005b6:	013a07b3          	add	a5,s4,s3
    800005ba:	0007c503          	lbu	a0,0(a5)
    800005be:	1e050b63          	beqz	a0,800007b4 <printf+0x28e>
    if(cx != '%'){
    800005c2:	ff5515e3          	bne	a0,s5,800005ac <printf+0x86>
    i++;
    800005c6:	0019849b          	addiw	s1,s3,1
    c0 = fmt[i+0] & 0xff;
    800005ca:	009a07b3          	add	a5,s4,s1
    800005ce:	0007c903          	lbu	s2,0(a5)
    if(c0) c1 = fmt[i+1] & 0xff;
    800005d2:	1e090163          	beqz	s2,800007b4 <printf+0x28e>
    800005d6:	0017c783          	lbu	a5,1(a5)
    c1 = c2 = 0;
    800005da:	86be                	mv	a3,a5
    if(c1) c2 = fmt[i+2] & 0xff;
    800005dc:	c789                	beqz	a5,800005e6 <printf+0xc0>
    800005de:	009a0733          	add	a4,s4,s1
    800005e2:	00274683          	lbu	a3,2(a4)
    if(c0 == 'd'){
    800005e6:	03690763          	beq	s2,s6,80000614 <printf+0xee>
    } else if(c0 == 'l' && c1 == 'd'){
    800005ea:	05890163          	beq	s2,s8,8000062c <printf+0x106>
    } else if(c0 == 'u'){
    800005ee:	0d990b63          	beq	s2,s9,800006c4 <printf+0x19e>
    } else if(c0 == 'x'){
    800005f2:	13a90163          	beq	s2,s10,80000714 <printf+0x1ee>
    } else if(c0 == 'p'){
    800005f6:	13b90b63          	beq	s2,s11,8000072c <printf+0x206>
      printptr(va_arg(ap, uint64));
    } else if(c0 == 's'){
    800005fa:	07300793          	li	a5,115
    800005fe:	16f90a63          	beq	s2,a5,80000772 <printf+0x24c>
      if((s = va_arg(ap, char*)) == 0)
        s = "(null)";
      for(; *s; s++)
        consputc(*s);
    } else if(c0 == '%'){
    80000602:	1b590463          	beq	s2,s5,800007aa <printf+0x284>
      consputc('%');
    } else if(c0 == 0){
      break;
    } else {
      // Print unknown % sequence to draw attention.
      consputc('%');
    80000606:	8556                	mv	a0,s5
    80000608:	c39ff0ef          	jal	80000240 <consputc>
      consputc(c0);
    8000060c:	854a                	mv	a0,s2
    8000060e:	c33ff0ef          	jal	80000240 <consputc>
    80000612:	b745                	j	800005b2 <printf+0x8c>
      printint(va_arg(ap, int), 10, 1);
    80000614:	f8843783          	ld	a5,-120(s0)
    80000618:	00878713          	addi	a4,a5,8
    8000061c:	f8e43423          	sd	a4,-120(s0)
    80000620:	4605                	li	a2,1
    80000622:	45a9                	li	a1,10
    80000624:	4388                	lw	a0,0(a5)
    80000626:	e6fff0ef          	jal	80000494 <printint>
    8000062a:	b761                	j	800005b2 <printf+0x8c>
    } else if(c0 == 'l' && c1 == 'd'){
    8000062c:	03678663          	beq	a5,s6,80000658 <printf+0x132>
    } else if(c0 == 'l' && c1 == 'l' && c2 == 'd'){
    80000630:	05878263          	beq	a5,s8,80000674 <printf+0x14e>
    } else if(c0 == 'l' && c1 == 'u'){
    80000634:	0b978463          	beq	a5,s9,800006dc <printf+0x1b6>
    } else if(c0 == 'l' && c1 == 'x'){
    80000638:	fda797e3          	bne	a5,s10,80000606 <printf+0xe0>
      printint(va_arg(ap, uint64), 16, 0);
    8000063c:	f8843783          	ld	a5,-120(s0)
    80000640:	00878713          	addi	a4,a5,8
    80000644:	f8e43423          	sd	a4,-120(s0)
    80000648:	4601                	li	a2,0
    8000064a:	45c1                	li	a1,16
    8000064c:	6388                	ld	a0,0(a5)
    8000064e:	e47ff0ef          	jal	80000494 <printint>
      i += 1;
    80000652:	0029849b          	addiw	s1,s3,2
    80000656:	bfb1                	j	800005b2 <printf+0x8c>
      printint(va_arg(ap, uint64), 10, 1);
    80000658:	f8843783          	ld	a5,-120(s0)
    8000065c:	00878713          	addi	a4,a5,8
    80000660:	f8e43423          	sd	a4,-120(s0)
    80000664:	4605                	li	a2,1
    80000666:	45a9                	li	a1,10
    80000668:	6388                	ld	a0,0(a5)
    8000066a:	e2bff0ef          	jal	80000494 <printint>
      i += 1;
    8000066e:	0029849b          	addiw	s1,s3,2
    80000672:	b781                	j	800005b2 <printf+0x8c>
    } else if(c0 == 'l' && c1 == 'l' && c2 == 'd'){
    80000674:	06400793          	li	a5,100
    80000678:	02f68863          	beq	a3,a5,800006a8 <printf+0x182>
    } else if(c0 == 'l' && c1 == 'l' && c2 == 'u'){
    8000067c:	07500793          	li	a5,117
    80000680:	06f68c63          	beq	a3,a5,800006f8 <printf+0x1d2>
    } else if(c0 == 'l' && c1 == 'l' && c2 == 'x'){
    80000684:	07800793          	li	a5,120
    80000688:	f6f69fe3          	bne	a3,a5,80000606 <printf+0xe0>
      printint(va_arg(ap, uint64), 16, 0);
    8000068c:	f8843783          	ld	a5,-120(s0)
    80000690:	00878713          	addi	a4,a5,8
    80000694:	f8e43423          	sd	a4,-120(s0)
    80000698:	4601                	li	a2,0
    8000069a:	45c1                	li	a1,16
    8000069c:	6388                	ld	a0,0(a5)
    8000069e:	df7ff0ef          	jal	80000494 <printint>
      i += 2;
    800006a2:	0039849b          	addiw	s1,s3,3
    800006a6:	b731                	j	800005b2 <printf+0x8c>
      printint(va_arg(ap, uint64), 10, 1);
    800006a8:	f8843783          	ld	a5,-120(s0)
    800006ac:	00878713          	addi	a4,a5,8
    800006b0:	f8e43423          	sd	a4,-120(s0)
    800006b4:	4605                	li	a2,1
    800006b6:	45a9                	li	a1,10
    800006b8:	6388                	ld	a0,0(a5)
    800006ba:	ddbff0ef          	jal	80000494 <printint>
      i += 2;
    800006be:	0039849b          	addiw	s1,s3,3
    800006c2:	bdc5                	j	800005b2 <printf+0x8c>
      printint(va_arg(ap, int), 10, 0);
    800006c4:	f8843783          	ld	a5,-120(s0)
    800006c8:	00878713          	addi	a4,a5,8
    800006cc:	f8e43423          	sd	a4,-120(s0)
    800006d0:	4601                	li	a2,0
    800006d2:	45a9                	li	a1,10
    800006d4:	4388                	lw	a0,0(a5)
    800006d6:	dbfff0ef          	jal	80000494 <printint>
    800006da:	bde1                	j	800005b2 <printf+0x8c>
      printint(va_arg(ap, uint64), 10, 0);
    800006dc:	f8843783          	ld	a5,-120(s0)
    800006e0:	00878713          	addi	a4,a5,8
    800006e4:	f8e43423          	sd	a4,-120(s0)
    800006e8:	4601                	li	a2,0
    800006ea:	45a9                	li	a1,10
    800006ec:	6388                	ld	a0,0(a5)
    800006ee:	da7ff0ef          	jal	80000494 <printint>
      i += 1;
    800006f2:	0029849b          	addiw	s1,s3,2
    800006f6:	bd75                	j	800005b2 <printf+0x8c>
      printint(va_arg(ap, uint64), 10, 0);
    800006f8:	f8843783          	ld	a5,-120(s0)
    800006fc:	00878713          	addi	a4,a5,8
    80000700:	f8e43423          	sd	a4,-120(s0)
    80000704:	4601                	li	a2,0
    80000706:	45a9                	li	a1,10
    80000708:	6388                	ld	a0,0(a5)
    8000070a:	d8bff0ef          	jal	80000494 <printint>
      i += 2;
    8000070e:	0039849b          	addiw	s1,s3,3
    80000712:	b545                	j	800005b2 <printf+0x8c>
      printint(va_arg(ap, int), 16, 0);
    80000714:	f8843783          	ld	a5,-120(s0)
    80000718:	00878713          	addi	a4,a5,8
    8000071c:	f8e43423          	sd	a4,-120(s0)
    80000720:	4601                	li	a2,0
    80000722:	45c1                	li	a1,16
    80000724:	4388                	lw	a0,0(a5)
    80000726:	d6fff0ef          	jal	80000494 <printint>
    8000072a:	b561                	j	800005b2 <printf+0x8c>
    8000072c:	e4de                	sd	s7,72(sp)
      printptr(va_arg(ap, uint64));
    8000072e:	f8843783          	ld	a5,-120(s0)
    80000732:	00878713          	addi	a4,a5,8
    80000736:	f8e43423          	sd	a4,-120(s0)
    8000073a:	0007b983          	ld	s3,0(a5)
  consputc('0');
    8000073e:	03000513          	li	a0,48
    80000742:	affff0ef          	jal	80000240 <consputc>
  consputc('x');
    80000746:	07800513          	li	a0,120
    8000074a:	af7ff0ef          	jal	80000240 <consputc>
    8000074e:	4941                	li	s2,16
    consputc(digits[x >> (sizeof(uint64) * 8 - 4)]);
    80000750:	00008b97          	auipc	s7,0x8
    80000754:	140b8b93          	addi	s7,s7,320 # 80008890 <digits>
    80000758:	03c9d793          	srli	a5,s3,0x3c
    8000075c:	97de                	add	a5,a5,s7
    8000075e:	0007c503          	lbu	a0,0(a5)
    80000762:	adfff0ef          	jal	80000240 <consputc>
  for (i = 0; i < (sizeof(uint64) * 2); i++, x <<= 4)
    80000766:	0992                	slli	s3,s3,0x4
    80000768:	397d                	addiw	s2,s2,-1
    8000076a:	fe0917e3          	bnez	s2,80000758 <printf+0x232>
    8000076e:	6ba6                	ld	s7,72(sp)
    80000770:	b589                	j	800005b2 <printf+0x8c>
      if((s = va_arg(ap, char*)) == 0)
    80000772:	f8843783          	ld	a5,-120(s0)
    80000776:	00878713          	addi	a4,a5,8
    8000077a:	f8e43423          	sd	a4,-120(s0)
    8000077e:	0007b903          	ld	s2,0(a5)
    80000782:	00090d63          	beqz	s2,8000079c <printf+0x276>
      for(; *s; s++)
    80000786:	00094503          	lbu	a0,0(s2)
    8000078a:	e20504e3          	beqz	a0,800005b2 <printf+0x8c>
        consputc(*s);
    8000078e:	ab3ff0ef          	jal	80000240 <consputc>
      for(; *s; s++)
    80000792:	0905                	addi	s2,s2,1
    80000794:	00094503          	lbu	a0,0(s2)
    80000798:	f97d                	bnez	a0,8000078e <printf+0x268>
    8000079a:	bd21                	j	800005b2 <printf+0x8c>
        s = "(null)";
    8000079c:	00008917          	auipc	s2,0x8
    800007a0:	8a490913          	addi	s2,s2,-1884 # 80008040 <etext+0x40>
      for(; *s; s++)
    800007a4:	02800513          	li	a0,40
    800007a8:	b7dd                	j	8000078e <printf+0x268>
      consputc('%');
    800007aa:	02500513          	li	a0,37
    800007ae:	a93ff0ef          	jal	80000240 <consputc>
    800007b2:	b501                	j	800005b2 <printf+0x8c>
    }
#endif
  }
  va_end(ap);

  if(locking)
    800007b4:	f7843783          	ld	a5,-136(s0)
    800007b8:	e385                	bnez	a5,800007d8 <printf+0x2b2>
    800007ba:	74e6                	ld	s1,120(sp)
    800007bc:	7946                	ld	s2,112(sp)
    800007be:	79a6                	ld	s3,104(sp)
    800007c0:	6ae6                	ld	s5,88(sp)
    800007c2:	6b46                	ld	s6,80(sp)
    800007c4:	6c06                	ld	s8,64(sp)
    800007c6:	7ce2                	ld	s9,56(sp)
    800007c8:	7d42                	ld	s10,48(sp)
    800007ca:	7da2                	ld	s11,40(sp)
    release(&pr.lock);

  return 0;
}
    800007cc:	4501                	li	a0,0
    800007ce:	60aa                	ld	ra,136(sp)
    800007d0:	640a                	ld	s0,128(sp)
    800007d2:	7a06                	ld	s4,96(sp)
    800007d4:	6169                	addi	sp,sp,208
    800007d6:	8082                	ret
    800007d8:	74e6                	ld	s1,120(sp)
    800007da:	7946                	ld	s2,112(sp)
    800007dc:	79a6                	ld	s3,104(sp)
    800007de:	6ae6                	ld	s5,88(sp)
    800007e0:	6b46                	ld	s6,80(sp)
    800007e2:	6c06                	ld	s8,64(sp)
    800007e4:	7ce2                	ld	s9,56(sp)
    800007e6:	7d42                	ld	s10,48(sp)
    800007e8:	7da2                	ld	s11,40(sp)
    release(&pr.lock);
    800007ea:	00010517          	auipc	a0,0x10
    800007ee:	33e50513          	addi	a0,a0,830 # 80010b28 <pr>
    800007f2:	4fe000ef          	jal	80000cf0 <release>
    800007f6:	bfd9                	j	800007cc <printf+0x2a6>

00000000800007f8 <panic>:

void
panic(char *s)
{
    800007f8:	1101                	addi	sp,sp,-32
    800007fa:	ec06                	sd	ra,24(sp)
    800007fc:	e822                	sd	s0,16(sp)
    800007fe:	e426                	sd	s1,8(sp)
    80000800:	1000                	addi	s0,sp,32
    80000802:	84aa                	mv	s1,a0
  pr.locking = 0;
    80000804:	00010797          	auipc	a5,0x10
    80000808:	3207ae23          	sw	zero,828(a5) # 80010b40 <pr+0x18>
  printf("panic: ");
    8000080c:	00008517          	auipc	a0,0x8
    80000810:	83c50513          	addi	a0,a0,-1988 # 80008048 <etext+0x48>
    80000814:	d13ff0ef          	jal	80000526 <printf>
  printf("%s\n", s);
    80000818:	85a6                	mv	a1,s1
    8000081a:	00008517          	auipc	a0,0x8
    8000081e:	83650513          	addi	a0,a0,-1994 # 80008050 <etext+0x50>
    80000822:	d05ff0ef          	jal	80000526 <printf>
  panicked = 1; // freeze uart output from other CPUs
    80000826:	4785                	li	a5,1
    80000828:	00008717          	auipc	a4,0x8
    8000082c:	20f72c23          	sw	a5,536(a4) # 80008a40 <panicked>
  for(;;)
    80000830:	a001                	j	80000830 <panic+0x38>

0000000080000832 <printfinit>:
    ;
}

void
printfinit(void)
{
    80000832:	1101                	addi	sp,sp,-32
    80000834:	ec06                	sd	ra,24(sp)
    80000836:	e822                	sd	s0,16(sp)
    80000838:	e426                	sd	s1,8(sp)
    8000083a:	1000                	addi	s0,sp,32
  initlock(&pr.lock, "pr");
    8000083c:	00010497          	auipc	s1,0x10
    80000840:	2ec48493          	addi	s1,s1,748 # 80010b28 <pr>
    80000844:	00008597          	auipc	a1,0x8
    80000848:	81458593          	addi	a1,a1,-2028 # 80008058 <etext+0x58>
    8000084c:	8526                	mv	a0,s1
    8000084e:	38a000ef          	jal	80000bd8 <initlock>
  pr.locking = 1;
    80000852:	4785                	li	a5,1
    80000854:	cc9c                	sw	a5,24(s1)
}
    80000856:	60e2                	ld	ra,24(sp)
    80000858:	6442                	ld	s0,16(sp)
    8000085a:	64a2                	ld	s1,8(sp)
    8000085c:	6105                	addi	sp,sp,32
    8000085e:	8082                	ret

0000000080000860 <uartinit>:

void uartstart();

void
uartinit(void)
{
    80000860:	1141                	addi	sp,sp,-16
    80000862:	e406                	sd	ra,8(sp)
    80000864:	e022                	sd	s0,0(sp)
    80000866:	0800                	addi	s0,sp,16
  // disable interrupts.
  WriteReg(IER, 0x00);
    80000868:	100007b7          	lui	a5,0x10000
    8000086c:	000780a3          	sb	zero,1(a5) # 10000001 <_entry-0x6fffffff>

  // special mode to set baud rate.
  WriteReg(LCR, LCR_BAUD_LATCH);
    80000870:	10000737          	lui	a4,0x10000
    80000874:	f8000693          	li	a3,-128
    80000878:	00d701a3          	sb	a3,3(a4) # 10000003 <_entry-0x6ffffffd>

  // LSB for baud rate of 38.4K.
  WriteReg(0, 0x03);
    8000087c:	468d                	li	a3,3
    8000087e:	10000637          	lui	a2,0x10000
    80000882:	00d60023          	sb	a3,0(a2) # 10000000 <_entry-0x70000000>

  // MSB for baud rate of 38.4K.
  WriteReg(1, 0x00);
    80000886:	000780a3          	sb	zero,1(a5)

  // leave set-baud mode,
  // and set word length to 8 bits, no parity.
  WriteReg(LCR, LCR_EIGHT_BITS);
    8000088a:	00d701a3          	sb	a3,3(a4)

  // reset and enable FIFOs.
  WriteReg(FCR, FCR_FIFO_ENABLE | FCR_FIFO_CLEAR);
    8000088e:	10000737          	lui	a4,0x10000
    80000892:	461d                	li	a2,7
    80000894:	00c70123          	sb	a2,2(a4) # 10000002 <_entry-0x6ffffffe>

  // enable transmit and receive interrupts.
  WriteReg(IER, IER_TX_ENABLE | IER_RX_ENABLE);
    80000898:	00d780a3          	sb	a3,1(a5)

  initlock(&uart_tx_lock, "uart");
    8000089c:	00007597          	auipc	a1,0x7
    800008a0:	7c458593          	addi	a1,a1,1988 # 80008060 <etext+0x60>
    800008a4:	00010517          	auipc	a0,0x10
    800008a8:	2a450513          	addi	a0,a0,676 # 80010b48 <uart_tx_lock>
    800008ac:	32c000ef          	jal	80000bd8 <initlock>
}
    800008b0:	60a2                	ld	ra,8(sp)
    800008b2:	6402                	ld	s0,0(sp)
    800008b4:	0141                	addi	sp,sp,16
    800008b6:	8082                	ret

00000000800008b8 <uartputc_sync>:
// use interrupts, for use by kernel printf() and
// to echo characters. it spins waiting for the uart's
// output register to be empty.
void
uartputc_sync(int c)
{
    800008b8:	1101                	addi	sp,sp,-32
    800008ba:	ec06                	sd	ra,24(sp)
    800008bc:	e822                	sd	s0,16(sp)
    800008be:	e426                	sd	s1,8(sp)
    800008c0:	1000                	addi	s0,sp,32
    800008c2:	84aa                	mv	s1,a0
  push_off();
    800008c4:	354000ef          	jal	80000c18 <push_off>

  if(panicked){
    800008c8:	00008797          	auipc	a5,0x8
    800008cc:	1787a783          	lw	a5,376(a5) # 80008a40 <panicked>
    800008d0:	e795                	bnez	a5,800008fc <uartputc_sync+0x44>
    for(;;)
      ;
  }

  // wait for Transmit Holding Empty to be set in LSR.
  while((ReadReg(LSR) & LSR_TX_IDLE) == 0)
    800008d2:	10000737          	lui	a4,0x10000
    800008d6:	0715                	addi	a4,a4,5 # 10000005 <_entry-0x6ffffffb>
    800008d8:	00074783          	lbu	a5,0(a4)
    800008dc:	0207f793          	andi	a5,a5,32
    800008e0:	dfe5                	beqz	a5,800008d8 <uartputc_sync+0x20>
    ;
  WriteReg(THR, c);
    800008e2:	0ff4f513          	zext.b	a0,s1
    800008e6:	100007b7          	lui	a5,0x10000
    800008ea:	00a78023          	sb	a0,0(a5) # 10000000 <_entry-0x70000000>

  pop_off();
    800008ee:	3ae000ef          	jal	80000c9c <pop_off>
}
    800008f2:	60e2                	ld	ra,24(sp)
    800008f4:	6442                	ld	s0,16(sp)
    800008f6:	64a2                	ld	s1,8(sp)
    800008f8:	6105                	addi	sp,sp,32
    800008fa:	8082                	ret
    for(;;)
    800008fc:	a001                	j	800008fc <uartputc_sync+0x44>

00000000800008fe <uartstart>:
// called from both the top- and bottom-half.
void
uartstart()
{
  while(1){
    if(uart_tx_w == uart_tx_r){
    800008fe:	00008797          	auipc	a5,0x8
    80000902:	14a7b783          	ld	a5,330(a5) # 80008a48 <uart_tx_r>
    80000906:	00008717          	auipc	a4,0x8
    8000090a:	14a73703          	ld	a4,330(a4) # 80008a50 <uart_tx_w>
    8000090e:	08f70263          	beq	a4,a5,80000992 <uartstart+0x94>
{
    80000912:	7139                	addi	sp,sp,-64
    80000914:	fc06                	sd	ra,56(sp)
    80000916:	f822                	sd	s0,48(sp)
    80000918:	f426                	sd	s1,40(sp)
    8000091a:	f04a                	sd	s2,32(sp)
    8000091c:	ec4e                	sd	s3,24(sp)
    8000091e:	e852                	sd	s4,16(sp)
    80000920:	e456                	sd	s5,8(sp)
    80000922:	e05a                	sd	s6,0(sp)
    80000924:	0080                	addi	s0,sp,64
      // transmit buffer is empty.
      ReadReg(ISR);
      return;
    }
    
    if((ReadReg(LSR) & LSR_TX_IDLE) == 0){
    80000926:	10000937          	lui	s2,0x10000
    8000092a:	0915                	addi	s2,s2,5 # 10000005 <_entry-0x6ffffffb>
      // so we cannot give it another byte.
      // it will interrupt when it's ready for a new byte.
      return;
    }
    
    int c = uart_tx_buf[uart_tx_r % UART_TX_BUF_SIZE];
    8000092c:	00010a97          	auipc	s5,0x10
    80000930:	21ca8a93          	addi	s5,s5,540 # 80010b48 <uart_tx_lock>
    uart_tx_r += 1;
    80000934:	00008497          	auipc	s1,0x8
    80000938:	11448493          	addi	s1,s1,276 # 80008a48 <uart_tx_r>
    
    // maybe uartputc() is waiting for space in the buffer.
    wakeup(&uart_tx_r);
    
    WriteReg(THR, c);
    8000093c:	10000a37          	lui	s4,0x10000
    if(uart_tx_w == uart_tx_r){
    80000940:	00008997          	auipc	s3,0x8
    80000944:	11098993          	addi	s3,s3,272 # 80008a50 <uart_tx_w>
    if((ReadReg(LSR) & LSR_TX_IDLE) == 0){
    80000948:	00094703          	lbu	a4,0(s2)
    8000094c:	02077713          	andi	a4,a4,32
    80000950:	c71d                	beqz	a4,8000097e <uartstart+0x80>
    int c = uart_tx_buf[uart_tx_r % UART_TX_BUF_SIZE];
    80000952:	01f7f713          	andi	a4,a5,31
    80000956:	9756                	add	a4,a4,s5
    80000958:	01874b03          	lbu	s6,24(a4)
    uart_tx_r += 1;
    8000095c:	0785                	addi	a5,a5,1
    8000095e:	e09c                	sd	a5,0(s1)
    wakeup(&uart_tx_r);
    80000960:	8526                	mv	a0,s1
    80000962:	503010ef          	jal	80002664 <wakeup>
    WriteReg(THR, c);
    80000966:	016a0023          	sb	s6,0(s4) # 10000000 <_entry-0x70000000>
    if(uart_tx_w == uart_tx_r){
    8000096a:	609c                	ld	a5,0(s1)
    8000096c:	0009b703          	ld	a4,0(s3)
    80000970:	fcf71ce3          	bne	a4,a5,80000948 <uartstart+0x4a>
      ReadReg(ISR);
    80000974:	100007b7          	lui	a5,0x10000
    80000978:	0789                	addi	a5,a5,2 # 10000002 <_entry-0x6ffffffe>
    8000097a:	0007c783          	lbu	a5,0(a5)
  }
}
    8000097e:	70e2                	ld	ra,56(sp)
    80000980:	7442                	ld	s0,48(sp)
    80000982:	74a2                	ld	s1,40(sp)
    80000984:	7902                	ld	s2,32(sp)
    80000986:	69e2                	ld	s3,24(sp)
    80000988:	6a42                	ld	s4,16(sp)
    8000098a:	6aa2                	ld	s5,8(sp)
    8000098c:	6b02                	ld	s6,0(sp)
    8000098e:	6121                	addi	sp,sp,64
    80000990:	8082                	ret
      ReadReg(ISR);
    80000992:	100007b7          	lui	a5,0x10000
    80000996:	0789                	addi	a5,a5,2 # 10000002 <_entry-0x6ffffffe>
    80000998:	0007c783          	lbu	a5,0(a5)
      return;
    8000099c:	8082                	ret

000000008000099e <uartputc>:
{
    8000099e:	7179                	addi	sp,sp,-48
    800009a0:	f406                	sd	ra,40(sp)
    800009a2:	f022                	sd	s0,32(sp)
    800009a4:	ec26                	sd	s1,24(sp)
    800009a6:	e84a                	sd	s2,16(sp)
    800009a8:	e44e                	sd	s3,8(sp)
    800009aa:	e052                	sd	s4,0(sp)
    800009ac:	1800                	addi	s0,sp,48
    800009ae:	8a2a                	mv	s4,a0
  acquire(&uart_tx_lock);
    800009b0:	00010517          	auipc	a0,0x10
    800009b4:	19850513          	addi	a0,a0,408 # 80010b48 <uart_tx_lock>
    800009b8:	2a0000ef          	jal	80000c58 <acquire>
  if(panicked){
    800009bc:	00008797          	auipc	a5,0x8
    800009c0:	0847a783          	lw	a5,132(a5) # 80008a40 <panicked>
    800009c4:	efbd                	bnez	a5,80000a42 <uartputc+0xa4>
  while(uart_tx_w == uart_tx_r + UART_TX_BUF_SIZE){
    800009c6:	00008717          	auipc	a4,0x8
    800009ca:	08a73703          	ld	a4,138(a4) # 80008a50 <uart_tx_w>
    800009ce:	00008797          	auipc	a5,0x8
    800009d2:	07a7b783          	ld	a5,122(a5) # 80008a48 <uart_tx_r>
    800009d6:	02078793          	addi	a5,a5,32
    sleep(&uart_tx_r, &uart_tx_lock);
    800009da:	00010997          	auipc	s3,0x10
    800009de:	16e98993          	addi	s3,s3,366 # 80010b48 <uart_tx_lock>
    800009e2:	00008497          	auipc	s1,0x8
    800009e6:	06648493          	addi	s1,s1,102 # 80008a48 <uart_tx_r>
  while(uart_tx_w == uart_tx_r + UART_TX_BUF_SIZE){
    800009ea:	00008917          	auipc	s2,0x8
    800009ee:	06690913          	addi	s2,s2,102 # 80008a50 <uart_tx_w>
    800009f2:	00e79d63          	bne	a5,a4,80000a0c <uartputc+0x6e>
    sleep(&uart_tx_r, &uart_tx_lock);
    800009f6:	85ce                	mv	a1,s3
    800009f8:	8526                	mv	a0,s1
    800009fa:	41f010ef          	jal	80002618 <sleep>
  while(uart_tx_w == uart_tx_r + UART_TX_BUF_SIZE){
    800009fe:	00093703          	ld	a4,0(s2)
    80000a02:	609c                	ld	a5,0(s1)
    80000a04:	02078793          	addi	a5,a5,32
    80000a08:	fee787e3          	beq	a5,a4,800009f6 <uartputc+0x58>
  uart_tx_buf[uart_tx_w % UART_TX_BUF_SIZE] = c;
    80000a0c:	00010497          	auipc	s1,0x10
    80000a10:	13c48493          	addi	s1,s1,316 # 80010b48 <uart_tx_lock>
    80000a14:	01f77793          	andi	a5,a4,31
    80000a18:	97a6                	add	a5,a5,s1
    80000a1a:	01478c23          	sb	s4,24(a5)
  uart_tx_w += 1;
    80000a1e:	0705                	addi	a4,a4,1
    80000a20:	00008797          	auipc	a5,0x8
    80000a24:	02e7b823          	sd	a4,48(a5) # 80008a50 <uart_tx_w>
  uartstart();
    80000a28:	ed7ff0ef          	jal	800008fe <uartstart>
  release(&uart_tx_lock);
    80000a2c:	8526                	mv	a0,s1
    80000a2e:	2c2000ef          	jal	80000cf0 <release>
}
    80000a32:	70a2                	ld	ra,40(sp)
    80000a34:	7402                	ld	s0,32(sp)
    80000a36:	64e2                	ld	s1,24(sp)
    80000a38:	6942                	ld	s2,16(sp)
    80000a3a:	69a2                	ld	s3,8(sp)
    80000a3c:	6a02                	ld	s4,0(sp)
    80000a3e:	6145                	addi	sp,sp,48
    80000a40:	8082                	ret
    for(;;)
    80000a42:	a001                	j	80000a42 <uartputc+0xa4>

0000000080000a44 <uartgetc>:

// read one input character from the UART.
// return -1 if none is waiting.
int
uartgetc(void)
{
    80000a44:	1141                	addi	sp,sp,-16
    80000a46:	e422                	sd	s0,8(sp)
    80000a48:	0800                	addi	s0,sp,16
  if(ReadReg(LSR) & 0x01){
    80000a4a:	100007b7          	lui	a5,0x10000
    80000a4e:	0795                	addi	a5,a5,5 # 10000005 <_entry-0x6ffffffb>
    80000a50:	0007c783          	lbu	a5,0(a5)
    80000a54:	8b85                	andi	a5,a5,1
    80000a56:	cb81                	beqz	a5,80000a66 <uartgetc+0x22>
    // input data is ready.
    return ReadReg(RHR);
    80000a58:	100007b7          	lui	a5,0x10000
    80000a5c:	0007c503          	lbu	a0,0(a5) # 10000000 <_entry-0x70000000>
  } else {
    return -1;
  }
}
    80000a60:	6422                	ld	s0,8(sp)
    80000a62:	0141                	addi	sp,sp,16
    80000a64:	8082                	ret
    return -1;
    80000a66:	557d                	li	a0,-1
    80000a68:	bfe5                	j	80000a60 <uartgetc+0x1c>

0000000080000a6a <uartintr>:
// handle a uart interrupt, raised because input has
// arrived, or the uart is ready for more output, or
// both. called from devintr().
void
uartintr(void)
{
    80000a6a:	1101                	addi	sp,sp,-32
    80000a6c:	ec06                	sd	ra,24(sp)
    80000a6e:	e822                	sd	s0,16(sp)
    80000a70:	e426                	sd	s1,8(sp)
    80000a72:	1000                	addi	s0,sp,32
  // read and process incoming characters.
  while(1){
    int c = uartgetc();
    if(c == -1)
    80000a74:	54fd                	li	s1,-1
    80000a76:	a019                	j	80000a7c <uartintr+0x12>
      break;
    consoleintr(c);
    80000a78:	ffaff0ef          	jal	80000272 <consoleintr>
    int c = uartgetc();
    80000a7c:	fc9ff0ef          	jal	80000a44 <uartgetc>
    if(c == -1)
    80000a80:	fe951ce3          	bne	a0,s1,80000a78 <uartintr+0xe>
  }

  // send buffered characters.
  acquire(&uart_tx_lock);
    80000a84:	00010497          	auipc	s1,0x10
    80000a88:	0c448493          	addi	s1,s1,196 # 80010b48 <uart_tx_lock>
    80000a8c:	8526                	mv	a0,s1
    80000a8e:	1ca000ef          	jal	80000c58 <acquire>
  uartstart();
    80000a92:	e6dff0ef          	jal	800008fe <uartstart>
  release(&uart_tx_lock);
    80000a96:	8526                	mv	a0,s1
    80000a98:	258000ef          	jal	80000cf0 <release>
}
    80000a9c:	60e2                	ld	ra,24(sp)
    80000a9e:	6442                	ld	s0,16(sp)
    80000aa0:	64a2                	ld	s1,8(sp)
    80000aa2:	6105                	addi	sp,sp,32
    80000aa4:	8082                	ret

0000000080000aa6 <kfree>:
// which normally should have been returned by a
// call to kalloc().  (The exception is when
// initializing the allocator; see kinit above.)
void
kfree(void *pa)
{
    80000aa6:	1101                	addi	sp,sp,-32
    80000aa8:	ec06                	sd	ra,24(sp)
    80000aaa:	e822                	sd	s0,16(sp)
    80000aac:	e426                	sd	s1,8(sp)
    80000aae:	e04a                	sd	s2,0(sp)
    80000ab0:	1000                	addi	s0,sp,32
  struct run *r;

  if(((uint64)pa % PGSIZE) != 0 || (char*)pa < end || (uint64)pa >= PHYSTOP)
    80000ab2:	03451793          	slli	a5,a0,0x34
    80000ab6:	e7a9                	bnez	a5,80000b00 <kfree+0x5a>
    80000ab8:	84aa                	mv	s1,a0
    80000aba:	001b9797          	auipc	a5,0x1b9
    80000abe:	62678793          	addi	a5,a5,1574 # 801ba0e0 <end>
    80000ac2:	02f56f63          	bltu	a0,a5,80000b00 <kfree+0x5a>
    80000ac6:	47c5                	li	a5,17
    80000ac8:	07ee                	slli	a5,a5,0x1b
    80000aca:	02f57b63          	bgeu	a0,a5,80000b00 <kfree+0x5a>
    panic("kfree");

  // Fill with junk to catch dangling refs.
  memset(pa, 1, PGSIZE);
    80000ace:	6605                	lui	a2,0x1
    80000ad0:	4585                	li	a1,1
    80000ad2:	25a000ef          	jal	80000d2c <memset>

  r = (struct run*)pa;

  acquire(&kmem.lock);
    80000ad6:	00010917          	auipc	s2,0x10
    80000ada:	0aa90913          	addi	s2,s2,170 # 80010b80 <kmem>
    80000ade:	854a                	mv	a0,s2
    80000ae0:	178000ef          	jal	80000c58 <acquire>
  r->next = kmem.freelist;
    80000ae4:	01893783          	ld	a5,24(s2)
    80000ae8:	e09c                	sd	a5,0(s1)
  kmem.freelist = r;
    80000aea:	00993c23          	sd	s1,24(s2)
  release(&kmem.lock);
    80000aee:	854a                	mv	a0,s2
    80000af0:	200000ef          	jal	80000cf0 <release>
}
    80000af4:	60e2                	ld	ra,24(sp)
    80000af6:	6442                	ld	s0,16(sp)
    80000af8:	64a2                	ld	s1,8(sp)
    80000afa:	6902                	ld	s2,0(sp)
    80000afc:	6105                	addi	sp,sp,32
    80000afe:	8082                	ret
    panic("kfree");
    80000b00:	00007517          	auipc	a0,0x7
    80000b04:	56850513          	addi	a0,a0,1384 # 80008068 <etext+0x68>
    80000b08:	cf1ff0ef          	jal	800007f8 <panic>

0000000080000b0c <freerange>:
{
    80000b0c:	7179                	addi	sp,sp,-48
    80000b0e:	f406                	sd	ra,40(sp)
    80000b10:	f022                	sd	s0,32(sp)
    80000b12:	ec26                	sd	s1,24(sp)
    80000b14:	1800                	addi	s0,sp,48
  p = (char*)PGROUNDUP((uint64)pa_start);
    80000b16:	6785                	lui	a5,0x1
    80000b18:	fff78713          	addi	a4,a5,-1 # fff <_entry-0x7ffff001>
    80000b1c:	00e504b3          	add	s1,a0,a4
    80000b20:	777d                	lui	a4,0xfffff
    80000b22:	8cf9                	and	s1,s1,a4
  for(; p + PGSIZE <= (char*)pa_end; p += PGSIZE)
    80000b24:	94be                	add	s1,s1,a5
    80000b26:	0295e263          	bltu	a1,s1,80000b4a <freerange+0x3e>
    80000b2a:	e84a                	sd	s2,16(sp)
    80000b2c:	e44e                	sd	s3,8(sp)
    80000b2e:	e052                	sd	s4,0(sp)
    80000b30:	892e                	mv	s2,a1
    kfree(p);
    80000b32:	7a7d                	lui	s4,0xfffff
  for(; p + PGSIZE <= (char*)pa_end; p += PGSIZE)
    80000b34:	6985                	lui	s3,0x1
    kfree(p);
    80000b36:	01448533          	add	a0,s1,s4
    80000b3a:	f6dff0ef          	jal	80000aa6 <kfree>
  for(; p + PGSIZE <= (char*)pa_end; p += PGSIZE)
    80000b3e:	94ce                	add	s1,s1,s3
    80000b40:	fe997be3          	bgeu	s2,s1,80000b36 <freerange+0x2a>
    80000b44:	6942                	ld	s2,16(sp)
    80000b46:	69a2                	ld	s3,8(sp)
    80000b48:	6a02                	ld	s4,0(sp)
}
    80000b4a:	70a2                	ld	ra,40(sp)
    80000b4c:	7402                	ld	s0,32(sp)
    80000b4e:	64e2                	ld	s1,24(sp)
    80000b50:	6145                	addi	sp,sp,48
    80000b52:	8082                	ret

0000000080000b54 <kinit>:
{
    80000b54:	1141                	addi	sp,sp,-16
    80000b56:	e406                	sd	ra,8(sp)
    80000b58:	e022                	sd	s0,0(sp)
    80000b5a:	0800                	addi	s0,sp,16
  initlock(&kmem.lock, "kmem");
    80000b5c:	00007597          	auipc	a1,0x7
    80000b60:	51458593          	addi	a1,a1,1300 # 80008070 <etext+0x70>
    80000b64:	00010517          	auipc	a0,0x10
    80000b68:	01c50513          	addi	a0,a0,28 # 80010b80 <kmem>
    80000b6c:	06c000ef          	jal	80000bd8 <initlock>
  freerange(end, (void*)PHYSTOP);
    80000b70:	45c5                	li	a1,17
    80000b72:	05ee                	slli	a1,a1,0x1b
    80000b74:	001b9517          	auipc	a0,0x1b9
    80000b78:	56c50513          	addi	a0,a0,1388 # 801ba0e0 <end>
    80000b7c:	f91ff0ef          	jal	80000b0c <freerange>
}
    80000b80:	60a2                	ld	ra,8(sp)
    80000b82:	6402                	ld	s0,0(sp)
    80000b84:	0141                	addi	sp,sp,16
    80000b86:	8082                	ret

0000000080000b88 <kalloc>:
// Allocate one 4096-byte page of physical memory.
// Returns a pointer that the kernel can use.
// Returns 0 if the memory cannot be allocated.
void *
kalloc(void)
{
    80000b88:	1101                	addi	sp,sp,-32
    80000b8a:	ec06                	sd	ra,24(sp)
    80000b8c:	e822                	sd	s0,16(sp)
    80000b8e:	e426                	sd	s1,8(sp)
    80000b90:	1000                	addi	s0,sp,32
  struct run *r;

  acquire(&kmem.lock);
    80000b92:	00010497          	auipc	s1,0x10
    80000b96:	fee48493          	addi	s1,s1,-18 # 80010b80 <kmem>
    80000b9a:	8526                	mv	a0,s1
    80000b9c:	0bc000ef          	jal	80000c58 <acquire>
  r = kmem.freelist;
    80000ba0:	6c84                	ld	s1,24(s1)
  if(r)
    80000ba2:	c485                	beqz	s1,80000bca <kalloc+0x42>
    kmem.freelist = r->next;
    80000ba4:	609c                	ld	a5,0(s1)
    80000ba6:	00010517          	auipc	a0,0x10
    80000baa:	fda50513          	addi	a0,a0,-38 # 80010b80 <kmem>
    80000bae:	ed1c                	sd	a5,24(a0)
  release(&kmem.lock);
    80000bb0:	140000ef          	jal	80000cf0 <release>

  if(r)
    memset((char*)r, 5, PGSIZE); // fill with junk
    80000bb4:	6605                	lui	a2,0x1
    80000bb6:	4595                	li	a1,5
    80000bb8:	8526                	mv	a0,s1
    80000bba:	172000ef          	jal	80000d2c <memset>
  return (void*)r;
}
    80000bbe:	8526                	mv	a0,s1
    80000bc0:	60e2                	ld	ra,24(sp)
    80000bc2:	6442                	ld	s0,16(sp)
    80000bc4:	64a2                	ld	s1,8(sp)
    80000bc6:	6105                	addi	sp,sp,32
    80000bc8:	8082                	ret
  release(&kmem.lock);
    80000bca:	00010517          	auipc	a0,0x10
    80000bce:	fb650513          	addi	a0,a0,-74 # 80010b80 <kmem>
    80000bd2:	11e000ef          	jal	80000cf0 <release>
  if(r)
    80000bd6:	b7e5                	j	80000bbe <kalloc+0x36>

0000000080000bd8 <initlock>:
#include "proc.h"
#include "defs.h"

void
initlock(struct spinlock *lk, char *name)
{
    80000bd8:	1141                	addi	sp,sp,-16
    80000bda:	e422                	sd	s0,8(sp)
    80000bdc:	0800                	addi	s0,sp,16
  lk->name = name;
    80000bde:	e50c                	sd	a1,8(a0)
  lk->locked = 0;
    80000be0:	00052023          	sw	zero,0(a0)
  lk->cpu = 0;
    80000be4:	00053823          	sd	zero,16(a0)
}
    80000be8:	6422                	ld	s0,8(sp)
    80000bea:	0141                	addi	sp,sp,16
    80000bec:	8082                	ret

0000000080000bee <holding>:
// Interrupts must be off.
int
holding(struct spinlock *lk)
{
  int r;
  r = (lk->locked && lk->cpu == mycpu());
    80000bee:	411c                	lw	a5,0(a0)
    80000bf0:	e399                	bnez	a5,80000bf6 <holding+0x8>
    80000bf2:	4501                	li	a0,0
  return r;
}
    80000bf4:	8082                	ret
{
    80000bf6:	1101                	addi	sp,sp,-32
    80000bf8:	ec06                	sd	ra,24(sp)
    80000bfa:	e822                	sd	s0,16(sp)
    80000bfc:	e426                	sd	s1,8(sp)
    80000bfe:	1000                	addi	s0,sp,32
  r = (lk->locked && lk->cpu == mycpu());
    80000c00:	6904                	ld	s1,16(a0)
    80000c02:	410010ef          	jal	80002012 <mycpu>
    80000c06:	40a48533          	sub	a0,s1,a0
    80000c0a:	00153513          	seqz	a0,a0
}
    80000c0e:	60e2                	ld	ra,24(sp)
    80000c10:	6442                	ld	s0,16(sp)
    80000c12:	64a2                	ld	s1,8(sp)
    80000c14:	6105                	addi	sp,sp,32
    80000c16:	8082                	ret

0000000080000c18 <push_off>:
// it takes two pop_off()s to undo two push_off()s.  Also, if interrupts
// are initially off, then push_off, pop_off leaves them off.

void
push_off(void)
{
    80000c18:	1101                	addi	sp,sp,-32
    80000c1a:	ec06                	sd	ra,24(sp)
    80000c1c:	e822                	sd	s0,16(sp)
    80000c1e:	e426                	sd	s1,8(sp)
    80000c20:	1000                	addi	s0,sp,32
  asm volatile("csrr %0, sstatus" : "=r" (x) );
    80000c22:	100024f3          	csrr	s1,sstatus
    80000c26:	100027f3          	csrr	a5,sstatus
  w_sstatus(r_sstatus() & ~SSTATUS_SIE);
    80000c2a:	9bf5                	andi	a5,a5,-3
  asm volatile("csrw sstatus, %0" : : "r" (x));
    80000c2c:	10079073          	csrw	sstatus,a5
  int old = intr_get();

  intr_off();
  if(mycpu()->noff == 0)
    80000c30:	3e2010ef          	jal	80002012 <mycpu>
    80000c34:	5d3c                	lw	a5,120(a0)
    80000c36:	cb99                	beqz	a5,80000c4c <push_off+0x34>
    mycpu()->intena = old;
  mycpu()->noff += 1;
    80000c38:	3da010ef          	jal	80002012 <mycpu>
    80000c3c:	5d3c                	lw	a5,120(a0)
    80000c3e:	2785                	addiw	a5,a5,1
    80000c40:	dd3c                	sw	a5,120(a0)
}
    80000c42:	60e2                	ld	ra,24(sp)
    80000c44:	6442                	ld	s0,16(sp)
    80000c46:	64a2                	ld	s1,8(sp)
    80000c48:	6105                	addi	sp,sp,32
    80000c4a:	8082                	ret
    mycpu()->intena = old;
    80000c4c:	3c6010ef          	jal	80002012 <mycpu>
  return (x & SSTATUS_SIE) != 0;
    80000c50:	8085                	srli	s1,s1,0x1
    80000c52:	8885                	andi	s1,s1,1
    80000c54:	dd64                	sw	s1,124(a0)
    80000c56:	b7cd                	j	80000c38 <push_off+0x20>

0000000080000c58 <acquire>:
{
    80000c58:	1101                	addi	sp,sp,-32
    80000c5a:	ec06                	sd	ra,24(sp)
    80000c5c:	e822                	sd	s0,16(sp)
    80000c5e:	e426                	sd	s1,8(sp)
    80000c60:	1000                	addi	s0,sp,32
    80000c62:	84aa                	mv	s1,a0
  push_off(); // disable interrupts to avoid deadlock.
    80000c64:	fb5ff0ef          	jal	80000c18 <push_off>
  if(holding(lk))
    80000c68:	8526                	mv	a0,s1
    80000c6a:	f85ff0ef          	jal	80000bee <holding>
  while(__sync_lock_test_and_set(&lk->locked, 1) != 0)
    80000c6e:	4705                	li	a4,1
  if(holding(lk))
    80000c70:	e105                	bnez	a0,80000c90 <acquire+0x38>
  while(__sync_lock_test_and_set(&lk->locked, 1) != 0)
    80000c72:	87ba                	mv	a5,a4
    80000c74:	0cf4a7af          	amoswap.w.aq	a5,a5,(s1)
    80000c78:	2781                	sext.w	a5,a5
    80000c7a:	ffe5                	bnez	a5,80000c72 <acquire+0x1a>
  __sync_synchronize();
    80000c7c:	0ff0000f          	fence
  lk->cpu = mycpu();
    80000c80:	392010ef          	jal	80002012 <mycpu>
    80000c84:	e888                	sd	a0,16(s1)
}
    80000c86:	60e2                	ld	ra,24(sp)
    80000c88:	6442                	ld	s0,16(sp)
    80000c8a:	64a2                	ld	s1,8(sp)
    80000c8c:	6105                	addi	sp,sp,32
    80000c8e:	8082                	ret
    panic("acquire");
    80000c90:	00007517          	auipc	a0,0x7
    80000c94:	3e850513          	addi	a0,a0,1000 # 80008078 <etext+0x78>
    80000c98:	b61ff0ef          	jal	800007f8 <panic>

0000000080000c9c <pop_off>:

void
pop_off(void)
{
    80000c9c:	1141                	addi	sp,sp,-16
    80000c9e:	e406                	sd	ra,8(sp)
    80000ca0:	e022                	sd	s0,0(sp)
    80000ca2:	0800                	addi	s0,sp,16
  struct cpu *c = mycpu();
    80000ca4:	36e010ef          	jal	80002012 <mycpu>
  asm volatile("csrr %0, sstatus" : "=r" (x) );
    80000ca8:	100027f3          	csrr	a5,sstatus
  return (x & SSTATUS_SIE) != 0;
    80000cac:	8b89                	andi	a5,a5,2
  if(intr_get())
    80000cae:	e78d                	bnez	a5,80000cd8 <pop_off+0x3c>
    panic("pop_off - interruptible");
  if(c->noff < 1)
    80000cb0:	5d3c                	lw	a5,120(a0)
    80000cb2:	02f05963          	blez	a5,80000ce4 <pop_off+0x48>
    panic("pop_off");
  c->noff -= 1;
    80000cb6:	37fd                	addiw	a5,a5,-1
    80000cb8:	0007871b          	sext.w	a4,a5
    80000cbc:	dd3c                	sw	a5,120(a0)
  if(c->noff == 0 && c->intena)
    80000cbe:	eb09                	bnez	a4,80000cd0 <pop_off+0x34>
    80000cc0:	5d7c                	lw	a5,124(a0)
    80000cc2:	c799                	beqz	a5,80000cd0 <pop_off+0x34>
  asm volatile("csrr %0, sstatus" : "=r" (x) );
    80000cc4:	100027f3          	csrr	a5,sstatus
  w_sstatus(r_sstatus() | SSTATUS_SIE);
    80000cc8:	0027e793          	ori	a5,a5,2
  asm volatile("csrw sstatus, %0" : : "r" (x));
    80000ccc:	10079073          	csrw	sstatus,a5
    intr_on();
    80000cd0:	60a2                	ld	ra,8(sp)
    80000cd2:	6402                	ld	s0,0(sp)
    80000cd4:	0141                	addi	sp,sp,16
    80000cd6:	8082                	ret
    panic("pop_off - interruptible");
    80000cd8:	00007517          	auipc	a0,0x7
    80000cdc:	3a850513          	addi	a0,a0,936 # 80008080 <etext+0x80>
    80000ce0:	b19ff0ef          	jal	800007f8 <panic>
    panic("pop_off");
    80000ce4:	00007517          	auipc	a0,0x7
    80000ce8:	3b450513          	addi	a0,a0,948 # 80008098 <etext+0x98>
    80000cec:	b0dff0ef          	jal	800007f8 <panic>

0000000080000cf0 <release>:
{
    80000cf0:	1101                	addi	sp,sp,-32
    80000cf2:	ec06                	sd	ra,24(sp)
    80000cf4:	e822                	sd	s0,16(sp)
    80000cf6:	e426                	sd	s1,8(sp)
    80000cf8:	1000                	addi	s0,sp,32
    80000cfa:	84aa                	mv	s1,a0
  if(!holding(lk))
    80000cfc:	ef3ff0ef          	jal	80000bee <holding>
    80000d00:	c105                	beqz	a0,80000d20 <release+0x30>
  lk->cpu = 0;
    80000d02:	0004b823          	sd	zero,16(s1)
  __sync_synchronize();
    80000d06:	0ff0000f          	fence
  __sync_lock_release(&lk->locked);
    80000d0a:	0f50000f          	fence	iorw,ow
    80000d0e:	0804a02f          	amoswap.w	zero,zero,(s1)
  pop_off();
    80000d12:	f8bff0ef          	jal	80000c9c <pop_off>
}
    80000d16:	60e2                	ld	ra,24(sp)
    80000d18:	6442                	ld	s0,16(sp)
    80000d1a:	64a2                	ld	s1,8(sp)
    80000d1c:	6105                	addi	sp,sp,32
    80000d1e:	8082                	ret
    panic("release");
    80000d20:	00007517          	auipc	a0,0x7
    80000d24:	38050513          	addi	a0,a0,896 # 800080a0 <etext+0xa0>
    80000d28:	ad1ff0ef          	jal	800007f8 <panic>

0000000080000d2c <memset>:
#include "types.h"

void*
memset(void *dst, int c, uint n)
{
    80000d2c:	1141                	addi	sp,sp,-16
    80000d2e:	e422                	sd	s0,8(sp)
    80000d30:	0800                	addi	s0,sp,16
  char *cdst = (char *) dst;
  int i;
  for(i = 0; i < n; i++){
    80000d32:	ca19                	beqz	a2,80000d48 <memset+0x1c>
    80000d34:	87aa                	mv	a5,a0
    80000d36:	1602                	slli	a2,a2,0x20
    80000d38:	9201                	srli	a2,a2,0x20
    80000d3a:	00a60733          	add	a4,a2,a0
    cdst[i] = c;
    80000d3e:	00b78023          	sb	a1,0(a5)
  for(i = 0; i < n; i++){
    80000d42:	0785                	addi	a5,a5,1
    80000d44:	fee79de3          	bne	a5,a4,80000d3e <memset+0x12>
  }
  return dst;
}
    80000d48:	6422                	ld	s0,8(sp)
    80000d4a:	0141                	addi	sp,sp,16
    80000d4c:	8082                	ret

0000000080000d4e <memcmp>:

int
memcmp(const void *v1, const void *v2, uint n)
{
    80000d4e:	1141                	addi	sp,sp,-16
    80000d50:	e422                	sd	s0,8(sp)
    80000d52:	0800                	addi	s0,sp,16
  const uchar *s1, *s2;

  s1 = v1;
  s2 = v2;
  while(n-- > 0){
    80000d54:	ca05                	beqz	a2,80000d84 <memcmp+0x36>
    80000d56:	fff6069b          	addiw	a3,a2,-1 # fff <_entry-0x7ffff001>
    80000d5a:	1682                	slli	a3,a3,0x20
    80000d5c:	9281                	srli	a3,a3,0x20
    80000d5e:	0685                	addi	a3,a3,1
    80000d60:	96aa                	add	a3,a3,a0
    if(*s1 != *s2)
    80000d62:	00054783          	lbu	a5,0(a0)
    80000d66:	0005c703          	lbu	a4,0(a1)
    80000d6a:	00e79863          	bne	a5,a4,80000d7a <memcmp+0x2c>
      return *s1 - *s2;
    s1++, s2++;
    80000d6e:	0505                	addi	a0,a0,1
    80000d70:	0585                	addi	a1,a1,1
  while(n-- > 0){
    80000d72:	fed518e3          	bne	a0,a3,80000d62 <memcmp+0x14>
  }

  return 0;
    80000d76:	4501                	li	a0,0
    80000d78:	a019                	j	80000d7e <memcmp+0x30>
      return *s1 - *s2;
    80000d7a:	40e7853b          	subw	a0,a5,a4
}
    80000d7e:	6422                	ld	s0,8(sp)
    80000d80:	0141                	addi	sp,sp,16
    80000d82:	8082                	ret
  return 0;
    80000d84:	4501                	li	a0,0
    80000d86:	bfe5                	j	80000d7e <memcmp+0x30>

0000000080000d88 <memmove>:

void*
memmove(void *dst, const void *src, uint n)
{
    80000d88:	1141                	addi	sp,sp,-16
    80000d8a:	e422                	sd	s0,8(sp)
    80000d8c:	0800                	addi	s0,sp,16
  const char *s;
  char *d;

  if(n == 0)
    80000d8e:	c205                	beqz	a2,80000dae <memmove+0x26>
    return dst;
  
  s = src;
  d = dst;
  if(s < d && s + n > d){
    80000d90:	02a5e263          	bltu	a1,a0,80000db4 <memmove+0x2c>
    s += n;
    d += n;
    while(n-- > 0)
      *--d = *--s;
  } else
    while(n-- > 0)
    80000d94:	1602                	slli	a2,a2,0x20
    80000d96:	9201                	srli	a2,a2,0x20
    80000d98:	00c587b3          	add	a5,a1,a2
{
    80000d9c:	872a                	mv	a4,a0
      *d++ = *s++;
    80000d9e:	0585                	addi	a1,a1,1
    80000da0:	0705                	addi	a4,a4,1 # fffffffffffff001 <end+0xffffffff7fe44f21>
    80000da2:	fff5c683          	lbu	a3,-1(a1)
    80000da6:	fed70fa3          	sb	a3,-1(a4)
    while(n-- > 0)
    80000daa:	feb79ae3          	bne	a5,a1,80000d9e <memmove+0x16>

  return dst;
}
    80000dae:	6422                	ld	s0,8(sp)
    80000db0:	0141                	addi	sp,sp,16
    80000db2:	8082                	ret
  if(s < d && s + n > d){
    80000db4:	02061693          	slli	a3,a2,0x20
    80000db8:	9281                	srli	a3,a3,0x20
    80000dba:	00d58733          	add	a4,a1,a3
    80000dbe:	fce57be3          	bgeu	a0,a4,80000d94 <memmove+0xc>
    d += n;
    80000dc2:	96aa                	add	a3,a3,a0
    while(n-- > 0)
    80000dc4:	fff6079b          	addiw	a5,a2,-1
    80000dc8:	1782                	slli	a5,a5,0x20
    80000dca:	9381                	srli	a5,a5,0x20
    80000dcc:	fff7c793          	not	a5,a5
    80000dd0:	97ba                	add	a5,a5,a4
      *--d = *--s;
    80000dd2:	177d                	addi	a4,a4,-1
    80000dd4:	16fd                	addi	a3,a3,-1
    80000dd6:	00074603          	lbu	a2,0(a4)
    80000dda:	00c68023          	sb	a2,0(a3)
    while(n-- > 0)
    80000dde:	fef71ae3          	bne	a4,a5,80000dd2 <memmove+0x4a>
    80000de2:	b7f1                	j	80000dae <memmove+0x26>

0000000080000de4 <memcpy>:

// memcpy exists to placate GCC.  Use memmove.
void*
memcpy(void *dst, const void *src, uint n)
{
    80000de4:	1141                	addi	sp,sp,-16
    80000de6:	e406                	sd	ra,8(sp)
    80000de8:	e022                	sd	s0,0(sp)
    80000dea:	0800                	addi	s0,sp,16
  return memmove(dst, src, n);
    80000dec:	f9dff0ef          	jal	80000d88 <memmove>
}
    80000df0:	60a2                	ld	ra,8(sp)
    80000df2:	6402                	ld	s0,0(sp)
    80000df4:	0141                	addi	sp,sp,16
    80000df6:	8082                	ret

0000000080000df8 <strncmp>:

int
strncmp(const char *p, const char *q, uint n)
{
    80000df8:	1141                	addi	sp,sp,-16
    80000dfa:	e422                	sd	s0,8(sp)
    80000dfc:	0800                	addi	s0,sp,16
  while(n > 0 && *p && *p == *q)
    80000dfe:	ce11                	beqz	a2,80000e1a <strncmp+0x22>
    80000e00:	00054783          	lbu	a5,0(a0)
    80000e04:	cf89                	beqz	a5,80000e1e <strncmp+0x26>
    80000e06:	0005c703          	lbu	a4,0(a1)
    80000e0a:	00f71a63          	bne	a4,a5,80000e1e <strncmp+0x26>
    n--, p++, q++;
    80000e0e:	367d                	addiw	a2,a2,-1
    80000e10:	0505                	addi	a0,a0,1
    80000e12:	0585                	addi	a1,a1,1
  while(n > 0 && *p && *p == *q)
    80000e14:	f675                	bnez	a2,80000e00 <strncmp+0x8>
  if(n == 0)
    return 0;
    80000e16:	4501                	li	a0,0
    80000e18:	a801                	j	80000e28 <strncmp+0x30>
    80000e1a:	4501                	li	a0,0
    80000e1c:	a031                	j	80000e28 <strncmp+0x30>
  return (uchar)*p - (uchar)*q;
    80000e1e:	00054503          	lbu	a0,0(a0)
    80000e22:	0005c783          	lbu	a5,0(a1)
    80000e26:	9d1d                	subw	a0,a0,a5
}
    80000e28:	6422                	ld	s0,8(sp)
    80000e2a:	0141                	addi	sp,sp,16
    80000e2c:	8082                	ret

0000000080000e2e <strncpy>:

char*
strncpy(char *s, const char *t, int n)
{
    80000e2e:	1141                	addi	sp,sp,-16
    80000e30:	e422                	sd	s0,8(sp)
    80000e32:	0800                	addi	s0,sp,16
  char *os;

  os = s;
  while(n-- > 0 && (*s++ = *t++) != 0)
    80000e34:	87aa                	mv	a5,a0
    80000e36:	86b2                	mv	a3,a2
    80000e38:	367d                	addiw	a2,a2,-1
    80000e3a:	02d05563          	blez	a3,80000e64 <strncpy+0x36>
    80000e3e:	0785                	addi	a5,a5,1
    80000e40:	0005c703          	lbu	a4,0(a1)
    80000e44:	fee78fa3          	sb	a4,-1(a5)
    80000e48:	0585                	addi	a1,a1,1
    80000e4a:	f775                	bnez	a4,80000e36 <strncpy+0x8>
    ;
  while(n-- > 0)
    80000e4c:	873e                	mv	a4,a5
    80000e4e:	9fb5                	addw	a5,a5,a3
    80000e50:	37fd                	addiw	a5,a5,-1
    80000e52:	00c05963          	blez	a2,80000e64 <strncpy+0x36>
    *s++ = 0;
    80000e56:	0705                	addi	a4,a4,1
    80000e58:	fe070fa3          	sb	zero,-1(a4)
  while(n-- > 0)
    80000e5c:	40e786bb          	subw	a3,a5,a4
    80000e60:	fed04be3          	bgtz	a3,80000e56 <strncpy+0x28>
  return os;
}
    80000e64:	6422                	ld	s0,8(sp)
    80000e66:	0141                	addi	sp,sp,16
    80000e68:	8082                	ret

0000000080000e6a <safestrcpy>:

// Like strncpy but guaranteed to NUL-terminate.
char*
safestrcpy(char *s, const char *t, int n)
{
    80000e6a:	1141                	addi	sp,sp,-16
    80000e6c:	e422                	sd	s0,8(sp)
    80000e6e:	0800                	addi	s0,sp,16
  char *os;

  os = s;
  if(n <= 0)
    80000e70:	02c05363          	blez	a2,80000e96 <safestrcpy+0x2c>
    80000e74:	fff6069b          	addiw	a3,a2,-1
    80000e78:	1682                	slli	a3,a3,0x20
    80000e7a:	9281                	srli	a3,a3,0x20
    80000e7c:	96ae                	add	a3,a3,a1
    80000e7e:	87aa                	mv	a5,a0
    return os;
  while(--n > 0 && (*s++ = *t++) != 0)
    80000e80:	00d58963          	beq	a1,a3,80000e92 <safestrcpy+0x28>
    80000e84:	0585                	addi	a1,a1,1
    80000e86:	0785                	addi	a5,a5,1
    80000e88:	fff5c703          	lbu	a4,-1(a1)
    80000e8c:	fee78fa3          	sb	a4,-1(a5)
    80000e90:	fb65                	bnez	a4,80000e80 <safestrcpy+0x16>
    ;
  *s = 0;
    80000e92:	00078023          	sb	zero,0(a5)
  return os;
}
    80000e96:	6422                	ld	s0,8(sp)
    80000e98:	0141                	addi	sp,sp,16
    80000e9a:	8082                	ret

0000000080000e9c <strlen>:

int
strlen(const char *s)
{
    80000e9c:	1141                	addi	sp,sp,-16
    80000e9e:	e422                	sd	s0,8(sp)
    80000ea0:	0800                	addi	s0,sp,16
  int n;

  for(n = 0; s[n]; n++)
    80000ea2:	00054783          	lbu	a5,0(a0)
    80000ea6:	cf91                	beqz	a5,80000ec2 <strlen+0x26>
    80000ea8:	0505                	addi	a0,a0,1
    80000eaa:	87aa                	mv	a5,a0
    80000eac:	86be                	mv	a3,a5
    80000eae:	0785                	addi	a5,a5,1
    80000eb0:	fff7c703          	lbu	a4,-1(a5)
    80000eb4:	ff65                	bnez	a4,80000eac <strlen+0x10>
    80000eb6:	40a6853b          	subw	a0,a3,a0
    80000eba:	2505                	addiw	a0,a0,1
    ;
  return n;
}
    80000ebc:	6422                	ld	s0,8(sp)
    80000ebe:	0141                	addi	sp,sp,16
    80000ec0:	8082                	ret
  for(n = 0; s[n]; n++)
    80000ec2:	4501                	li	a0,0
    80000ec4:	bfe5                	j	80000ebc <strlen+0x20>

0000000080000ec6 <main>:
volatile static int started = 0;

// start() jumps here in supervisor mode on all CPUs.
void
main()
{
    80000ec6:	1141                	addi	sp,sp,-16
    80000ec8:	e406                	sd	ra,8(sp)
    80000eca:	e022                	sd	s0,0(sp)
    80000ecc:	0800                	addi	s0,sp,16
  if(cpuid() == 0){
    80000ece:	134010ef          	jal	80002002 <cpuid>
    virtio_disk_init(); // emulated hard disk
    userinit();      // first user process
    __sync_synchronize();
    started = 1;
  } else {
    while(started == 0)
    80000ed2:	00008717          	auipc	a4,0x8
    80000ed6:	b8670713          	addi	a4,a4,-1146 # 80008a58 <started>
  if(cpuid() == 0){
    80000eda:	c51d                	beqz	a0,80000f08 <main+0x42>
    while(started == 0)
    80000edc:	431c                	lw	a5,0(a4)
    80000ede:	2781                	sext.w	a5,a5
    80000ee0:	dff5                	beqz	a5,80000edc <main+0x16>
      ;
    __sync_synchronize();
    80000ee2:	0ff0000f          	fence
    printf("hart %d starting\n", cpuid());
    80000ee6:	11c010ef          	jal	80002002 <cpuid>
    80000eea:	85aa                	mv	a1,a0
    80000eec:	00007517          	auipc	a0,0x7
    80000ef0:	1dc50513          	addi	a0,a0,476 # 800080c8 <etext+0xc8>
    80000ef4:	e32ff0ef          	jal	80000526 <printf>
    kvminithart();    // turn on paging
    80000ef8:	746000ef          	jal	8000163e <kvminithart>
    trapinithart();   // install kernel trap vector
    80000efc:	6c5010ef          	jal	80002dc0 <trapinithart>
    plicinithart();   // ask PLIC for device interrupts
    80000f00:	709040ef          	jal	80005e08 <plicinithart>
  }

  scheduler();        
    80000f04:	57a010ef          	jal	8000247e <scheduler>
    consoleinit();
    80000f08:	d48ff0ef          	jal	80000450 <consoleinit>
    printfinit();
    80000f0c:	927ff0ef          	jal	80000832 <printfinit>
    printf("\n");
    80000f10:	00007517          	auipc	a0,0x7
    80000f14:	19850513          	addi	a0,a0,408 # 800080a8 <etext+0xa8>
    80000f18:	e0eff0ef          	jal	80000526 <printf>
    printf("xv6 kernel is booting\n");
    80000f1c:	00007517          	auipc	a0,0x7
    80000f20:	19450513          	addi	a0,a0,404 # 800080b0 <etext+0xb0>
    80000f24:	e02ff0ef          	jal	80000526 <printf>
    printf("\n");
    80000f28:	00007517          	auipc	a0,0x7
    80000f2c:	18050513          	addi	a0,a0,384 # 800080a8 <etext+0xa8>
    80000f30:	df6ff0ef          	jal	80000526 <printf>
    kinit();         // physical page allocator
    80000f34:	c21ff0ef          	jal	80000b54 <kinit>
    kvminit();       // create kernel page table
    80000f38:	191000ef          	jal	800018c8 <kvminit>
    kvminithart();   // turn on paging
    80000f3c:	702000ef          	jal	8000163e <kvminithart>
    procinit();      // process table
    80000f40:	7e9000ef          	jal	80001f28 <procinit>
    trapinit();      // trap vectors
    80000f44:	659010ef          	jal	80002d9c <trapinit>
    trapinithart();  // install kernel trap vector
    80000f48:	679010ef          	jal	80002dc0 <trapinithart>
    plicinit();      // set up interrupt controller
    80000f4c:	6a3040ef          	jal	80005dee <plicinit>
    plicinithart();  // ask PLIC for device interrupts
    80000f50:	6b9040ef          	jal	80005e08 <plicinithart>
    binit();         // buffer cache
    80000f54:	65c020ef          	jal	800035b0 <binit>
    iinit();         // inode table
    80000f58:	44f020ef          	jal	80003ba6 <iinit>
    fileinit();      // file table
    80000f5c:	1fb030ef          	jal	80004956 <fileinit>
    virtio_disk_init(); // emulated hard disk
    80000f60:	799040ef          	jal	80005ef8 <virtio_disk_init>
    userinit();      // first user process
    80000f64:	34e010ef          	jal	800022b2 <userinit>
    __sync_synchronize();
    80000f68:	0ff0000f          	fence
    started = 1;
    80000f6c:	4785                	li	a5,1
    80000f6e:	00008717          	auipc	a4,0x8
    80000f72:	aef72523          	sw	a5,-1302(a4) # 80008a58 <started>
    80000f76:	b779                	j	80000f04 <main+0x3e>

0000000080000f78 <msginit>:
    kds->queue_size = uds->msg_qbytes;
}

void
msginit(void)
{
    80000f78:	7179                	addi	sp,sp,-48
    80000f7a:	f406                	sd	ra,40(sp)
    80000f7c:	f022                	sd	s0,32(sp)
    80000f7e:	ec26                	sd	s1,24(sp)
    80000f80:	e84a                	sd	s2,16(sp)
    80000f82:	e44e                	sd	s3,8(sp)
    80000f84:	e052                	sd	s4,0(sp)
    80000f86:	1800                	addi	s0,sp,48
    initlock(&msgtable.lock, "msgtable");
    80000f88:	00007597          	auipc	a1,0x7
    80000f8c:	15858593          	addi	a1,a1,344 # 800080e0 <etext+0xe0>
    80000f90:	00010517          	auipc	a0,0x10
    80000f94:	c1050513          	addi	a0,a0,-1008 # 80010ba0 <msgtable>
    80000f98:	c41ff0ef          	jal	80000bd8 <initlock>
    for(int i = 0; i < MSG_MAX_QUEUES; i++) {
    80000f9c:	00010497          	auipc	s1,0x10
    80000fa0:	c3448493          	addi	s1,s1,-972 # 80010bd0 <msgtable+0x30>
    80000fa4:	00010a17          	auipc	s4,0x10
    80000fa8:	f2ca0a13          	addi	s4,s4,-212 # 80010ed0 <msgtable+0x330>
        initlock(&msgtable.queues[i].lock, "msgqueue");
    80000fac:	00007997          	auipc	s3,0x7
    80000fb0:	14498993          	addi	s3,s3,324 # 800080f0 <etext+0xf0>
        msgtable.queues[i].in_use = 0;
        msgtable.queues[i].msg_count = 0;
        msgtable.queues[i].first_msg = 0;
        msgtable.queues[i].last_msg = 0;
        msgtable.queues[i].queue_size = MSG_MAX_SIZE;
    80000fb4:	40000913          	li	s2,1024
        initlock(&msgtable.queues[i].lock, "msgqueue");
    80000fb8:	85ce                	mv	a1,s3
    80000fba:	8526                	mv	a0,s1
    80000fbc:	c1dff0ef          	jal	80000bd8 <initlock>
        msgtable.queues[i].in_use = 0;
    80000fc0:	fe04a423          	sw	zero,-24(s1)
        msgtable.queues[i].msg_count = 0;
    80000fc4:	fe04a623          	sw	zero,-20(s1)
        msgtable.queues[i].first_msg = 0;
    80000fc8:	fe04a823          	sw	zero,-16(s1)
        msgtable.queues[i].last_msg = 0;
    80000fcc:	fe04aa23          	sw	zero,-12(s1)
        msgtable.queues[i].queue_size = MSG_MAX_SIZE;
    80000fd0:	ff24ac23          	sw	s2,-8(s1)
    for(int i = 0; i < MSG_MAX_QUEUES; i++) {
    80000fd4:	03048493          	addi	s1,s1,48
    80000fd8:	ff4490e3          	bne	s1,s4,80000fb8 <msginit+0x40>
    }
}
    80000fdc:	70a2                	ld	ra,40(sp)
    80000fde:	7402                	ld	s0,32(sp)
    80000fe0:	64e2                	ld	s1,24(sp)
    80000fe2:	6942                	ld	s2,16(sp)
    80000fe4:	69a2                	ld	s3,8(sp)
    80000fe6:	6a02                	ld	s4,0(sp)
    80000fe8:	6145                	addi	sp,sp,48
    80000fea:	8082                	ret

0000000080000fec <sys_msgget>:

uint64
sys_msgget(void)
{
    80000fec:	7179                	addi	sp,sp,-48
    80000fee:	f406                	sd	ra,40(sp)
    80000ff0:	f022                	sd	s0,32(sp)
    80000ff2:	ec26                	sd	s1,24(sp)
    80000ff4:	1800                	addi	s0,sp,48
  int key, flags;
  if(argint(0, &key) < 0 || argint(1, &flags) < 0)
    80000ff6:	fdc40593          	addi	a1,s0,-36
    80000ffa:	4501                	li	a0,0
    80000ffc:	198020ef          	jal	80003194 <argint>
    return -1;
    80001000:	54fd                	li	s1,-1
  if(argint(0, &key) < 0 || argint(1, &flags) < 0)
    80001002:	04054363          	bltz	a0,80001048 <sys_msgget+0x5c>
    80001006:	fd840593          	addi	a1,s0,-40
    8000100a:	4505                	li	a0,1
    8000100c:	188020ef          	jal	80003194 <argint>
    80001010:	02054c63          	bltz	a0,80001048 <sys_msgget+0x5c>

  acquire(&msgtable.lock);
    80001014:	00010517          	auipc	a0,0x10
    80001018:	b8c50513          	addi	a0,a0,-1140 # 80010ba0 <msgtable>
    8000101c:	c3dff0ef          	jal	80000c58 <acquire>
  for(int i = 0; i < MSG_MAX_QUEUES; i++) {
    80001020:	00010797          	auipc	a5,0x10
    80001024:	b9878793          	addi	a5,a5,-1128 # 80010bb8 <msgtable+0x18>
    80001028:	4481                	li	s1,0
    8000102a:	46c1                	li	a3,16
    if(!msgtable.queues[i].in_use) {
    8000102c:	4398                	lw	a4,0(a5)
    8000102e:	c31d                	beqz	a4,80001054 <sys_msgget+0x68>
  for(int i = 0; i < MSG_MAX_QUEUES; i++) {
    80001030:	2485                	addiw	s1,s1,1
    80001032:	03078793          	addi	a5,a5,48
    80001036:	fed49be3          	bne	s1,a3,8000102c <sys_msgget+0x40>
      msgtable.queues[i].in_use = 1;
      release(&msgtable.lock);
      return i;
    }
  }
  release(&msgtable.lock);
    8000103a:	00010517          	auipc	a0,0x10
    8000103e:	b6650513          	addi	a0,a0,-1178 # 80010ba0 <msgtable>
    80001042:	cafff0ef          	jal	80000cf0 <release>
  return -1;
    80001046:	54fd                	li	s1,-1
}
    80001048:	8526                	mv	a0,s1
    8000104a:	70a2                	ld	ra,40(sp)
    8000104c:	7402                	ld	s0,32(sp)
    8000104e:	64e2                	ld	s1,24(sp)
    80001050:	6145                	addi	sp,sp,48
    80001052:	8082                	ret
      msgtable.queues[i].in_use = 1;
    80001054:	00010517          	auipc	a0,0x10
    80001058:	b4c50513          	addi	a0,a0,-1204 # 80010ba0 <msgtable>
    8000105c:	00149793          	slli	a5,s1,0x1
    80001060:	97a6                	add	a5,a5,s1
    80001062:	0792                	slli	a5,a5,0x4
    80001064:	97aa                	add	a5,a5,a0
    80001066:	4705                	li	a4,1
    80001068:	cf98                	sw	a4,24(a5)
      release(&msgtable.lock);
    8000106a:	c87ff0ef          	jal	80000cf0 <release>
      return i;
    8000106e:	bfe9                	j	80001048 <sys_msgget+0x5c>

0000000080001070 <sys_msgsnd>:

uint64
sys_msgsnd(void)
{
    80001070:	bc010113          	addi	sp,sp,-1088
    80001074:	42113c23          	sd	ra,1080(sp)
    80001078:	42813823          	sd	s0,1072(sp)
    8000107c:	44010413          	addi	s0,sp,1088
  int msqid;
  uint64 msgp;
  int msgsz, flags;

  if(argint(0, &msqid) < 0 || argaddr(1, &msgp) < 0 ||
    80001080:	fdc40593          	addi	a1,s0,-36
    80001084:	4501                	li	a0,0
    80001086:	10e020ef          	jal	80003194 <argint>
     argint(2, &msgsz) < 0 || argint(3, &flags) < 0)
    return -1;
    8000108a:	57fd                	li	a5,-1
  if(argint(0, &msqid) < 0 || argaddr(1, &msgp) < 0 ||
    8000108c:	1a054763          	bltz	a0,8000123a <sys_msgsnd+0x1ca>
    80001090:	fd040593          	addi	a1,s0,-48
    80001094:	4505                	li	a0,1
    80001096:	11c020ef          	jal	800031b2 <argaddr>
    return -1;
    8000109a:	57fd                	li	a5,-1
  if(argint(0, &msqid) < 0 || argaddr(1, &msgp) < 0 ||
    8000109c:	18054f63          	bltz	a0,8000123a <sys_msgsnd+0x1ca>
     argint(2, &msgsz) < 0 || argint(3, &flags) < 0)
    800010a0:	fcc40593          	addi	a1,s0,-52
    800010a4:	4509                	li	a0,2
    800010a6:	0ee020ef          	jal	80003194 <argint>
    return -1;
    800010aa:	57fd                	li	a5,-1
  if(argint(0, &msqid) < 0 || argaddr(1, &msgp) < 0 ||
    800010ac:	18054763          	bltz	a0,8000123a <sys_msgsnd+0x1ca>
     argint(2, &msgsz) < 0 || argint(3, &flags) < 0)
    800010b0:	fc840593          	addi	a1,s0,-56
    800010b4:	450d                	li	a0,3
    800010b6:	0de020ef          	jal	80003194 <argint>
    800010ba:	1a054563          	bltz	a0,80001264 <sys_msgsnd+0x1f4>

  if(msqid < 0 || msqid >= MSG_MAX_QUEUES || !msgtable.queues[msqid].in_use)
    800010be:	fdc42703          	lw	a4,-36(s0)
    800010c2:	0007061b          	sext.w	a2,a4
    800010c6:	46bd                	li	a3,15
    return -1;
    800010c8:	57fd                	li	a5,-1
  if(msqid < 0 || msqid >= MSG_MAX_QUEUES || !msgtable.queues[msqid].in_use)
    800010ca:	16c6e863          	bltu	a3,a2,8000123a <sys_msgsnd+0x1ca>
    800010ce:	00171793          	slli	a5,a4,0x1
    800010d2:	97ba                	add	a5,a5,a4
    800010d4:	0792                	slli	a5,a5,0x4
    800010d6:	00010717          	auipc	a4,0x10
    800010da:	aca70713          	addi	a4,a4,-1334 # 80010ba0 <msgtable>
    800010de:	97ba                	add	a5,a5,a4
    800010e0:	4f98                	lw	a4,24(a5)
    return -1;
    800010e2:	57fd                	li	a5,-1
  if(msqid < 0 || msqid >= MSG_MAX_QUEUES || !msgtable.queues[msqid].in_use)
    800010e4:	14070b63          	beqz	a4,8000123a <sys_msgsnd+0x1ca>

  struct msg_buf msg;
  if(copyin(myproc()->pagetable, (char*)&msg, msgp, sizeof(struct msg_buf)) < 0)
    800010e8:	747000ef          	jal	8000202e <myproc>
    800010ec:	40800693          	li	a3,1032
    800010f0:	fd043603          	ld	a2,-48(s0)
    800010f4:	bc040593          	addi	a1,s0,-1088
    800010f8:	6d28                	ld	a0,88(a0)
    800010fa:	459000ef          	jal	80001d52 <copyin>
    800010fe:	16054563          	bltz	a0,80001268 <sys_msgsnd+0x1f8>
    return -1;

  if(msgsz < 0 || msgsz > MSG_MAX_SIZE)
    80001102:	fcc42683          	lw	a3,-52(s0)
    80001106:	40000713          	li	a4,1024
    return -1;
    8000110a:	57fd                	li	a5,-1
  if(msgsz < 0 || msgsz > MSG_MAX_SIZE)
    8000110c:	12d76763          	bltu	a4,a3,8000123a <sys_msgsnd+0x1ca>
    80001110:	42913423          	sd	s1,1064(sp)

  acquire(&msgtable.queues[msqid].lock);
    80001114:	fdc42783          	lw	a5,-36(s0)
    80001118:	0785                	addi	a5,a5,1
    8000111a:	00179513          	slli	a0,a5,0x1
    8000111e:	953e                	add	a0,a0,a5
    80001120:	0512                	slli	a0,a0,0x4
    80001122:	00010497          	auipc	s1,0x10
    80001126:	a7e48493          	addi	s1,s1,-1410 # 80010ba0 <msgtable>
    8000112a:	9526                	add	a0,a0,s1
    8000112c:	b2dff0ef          	jal	80000c58 <acquire>
  
  if(msgtable.queues[msqid].msg_count >= msgtable.queues[msqid].queue_size) {
    80001130:	fdc42703          	lw	a4,-36(s0)
    80001134:	00171793          	slli	a5,a4,0x1
    80001138:	97ba                	add	a5,a5,a4
    8000113a:	0792                	slli	a5,a5,0x4
    8000113c:	94be                	add	s1,s1,a5
    8000113e:	4cd4                	lw	a3,28(s1)
    80001140:	549c                	lw	a5,40(s1)
    80001142:	04f6c263          	blt	a3,a5,80001186 <sys_msgsnd+0x116>
    if(flags & IPC_NOWAIT) {
    80001146:	fc842783          	lw	a5,-56(s0)
      release(&msgtable.queues[msqid].lock);
      return -1;
    }
    // Implement sleeping wait
    while(msgtable.queues[msqid].msg_count >= msgtable.queues[msqid].queue_size) {
      sleep(&msgtable.queues[msqid], &msgtable.queues[msqid].lock);
    8000114a:	00010497          	auipc	s1,0x10
    8000114e:	a5648493          	addi	s1,s1,-1450 # 80010ba0 <msgtable>
    if(flags & IPC_NOWAIT) {
    80001152:	03479693          	slli	a3,a5,0x34
    80001156:	0e06ca63          	bltz	a3,8000124a <sys_msgsnd+0x1da>
      sleep(&msgtable.queues[msqid], &msgtable.queues[msqid].lock);
    8000115a:	00171513          	slli	a0,a4,0x1
    8000115e:	953a                	add	a0,a0,a4
    80001160:	0512                	slli	a0,a0,0x4
    80001162:	03050593          	addi	a1,a0,48
    80001166:	0561                	addi	a0,a0,24
    80001168:	95a6                	add	a1,a1,s1
    8000116a:	9526                	add	a0,a0,s1
    8000116c:	4ac010ef          	jal	80002618 <sleep>
    while(msgtable.queues[msqid].msg_count >= msgtable.queues[msqid].queue_size) {
    80001170:	fdc42703          	lw	a4,-36(s0)
    80001174:	00171793          	slli	a5,a4,0x1
    80001178:	97ba                	add	a5,a5,a4
    8000117a:	0792                	slli	a5,a5,0x4
    8000117c:	97a6                	add	a5,a5,s1
    8000117e:	4fd4                	lw	a3,28(a5)
    80001180:	579c                	lw	a5,40(a5)
    80001182:	fcf6dce3          	bge	a3,a5,8000115a <sys_msgsnd+0xea>
    }
  }

  int msg_index = msqid * MSG_MAX_SIZE + msgtable.queues[msqid].last_msg;
    80001186:	fdc42583          	lw	a1,-36(s0)
    8000118a:	00010797          	auipc	a5,0x10
    8000118e:	a1678793          	addi	a5,a5,-1514 # 80010ba0 <msgtable>
    80001192:	00159713          	slli	a4,a1,0x1
    80001196:	972e                	add	a4,a4,a1
    80001198:	0712                	slli	a4,a4,0x4
    8000119a:	973e                	add	a4,a4,a5
    8000119c:	5354                	lw	a3,36(a4)
    8000119e:	00a5961b          	slliw	a2,a1,0xa
  msgtable.messages[msg_index] = msg;
    800011a2:	9e35                	addw	a2,a2,a3
    800011a4:	00761713          	slli	a4,a2,0x7
    800011a8:	9732                	add	a4,a4,a2
    800011aa:	070e                	slli	a4,a4,0x3
    800011ac:	97ba                	add	a5,a5,a4
    800011ae:	bc040713          	addi	a4,s0,-1088
    800011b2:	31878793          	addi	a5,a5,792
    800011b6:	fc040313          	addi	t1,s0,-64
    800011ba:	00073883          	ld	a7,0(a4)
    800011be:	00873803          	ld	a6,8(a4)
    800011c2:	6b08                	ld	a0,16(a4)
    800011c4:	6f10                	ld	a2,24(a4)
    800011c6:	0117b023          	sd	a7,0(a5)
    800011ca:	0107b423          	sd	a6,8(a5)
    800011ce:	eb88                	sd	a0,16(a5)
    800011d0:	ef90                	sd	a2,24(a5)
    800011d2:	02070713          	addi	a4,a4,32
    800011d6:	02078793          	addi	a5,a5,32
    800011da:	fe6710e3          	bne	a4,t1,800011ba <sys_msgsnd+0x14a>
    800011de:	6318                	ld	a4,0(a4)
    800011e0:	e398                	sd	a4,0(a5)

  msgtable.queues[msqid].last_msg = (msgtable.queues[msqid].last_msg + 1) % MSG_MAX_SIZE;
    800011e2:	00010497          	auipc	s1,0x10
    800011e6:	9be48493          	addi	s1,s1,-1602 # 80010ba0 <msgtable>
    800011ea:	00159713          	slli	a4,a1,0x1
    800011ee:	00b70633          	add	a2,a4,a1
    800011f2:	0612                	slli	a2,a2,0x4
    800011f4:	9626                	add	a2,a2,s1
    800011f6:	0016879b          	addiw	a5,a3,1
    800011fa:	41f7d69b          	sraiw	a3,a5,0x1f
    800011fe:	0166d69b          	srliw	a3,a3,0x16
    80001202:	9fb5                	addw	a5,a5,a3
    80001204:	3ff7f793          	andi	a5,a5,1023
    80001208:	9f95                	subw	a5,a5,a3
    8000120a:	d25c                	sw	a5,36(a2)
  msgtable.queues[msqid].msg_count++;
    8000120c:	4e5c                	lw	a5,28(a2)
    8000120e:	2785                	addiw	a5,a5,1
    80001210:	ce5c                	sw	a5,28(a2)

  wakeup(&msgtable.queues[msqid]);
    80001212:	00b70533          	add	a0,a4,a1
    80001216:	0512                	slli	a0,a0,0x4
    80001218:	0561                	addi	a0,a0,24
    8000121a:	9526                	add	a0,a0,s1
    8000121c:	448010ef          	jal	80002664 <wakeup>
  release(&msgtable.queues[msqid].lock);
    80001220:	fdc42783          	lw	a5,-36(s0)
    80001224:	0785                	addi	a5,a5,1
    80001226:	00179513          	slli	a0,a5,0x1
    8000122a:	953e                	add	a0,a0,a5
    8000122c:	0512                	slli	a0,a0,0x4
    8000122e:	9526                	add	a0,a0,s1
    80001230:	ac1ff0ef          	jal	80000cf0 <release>
  return 0;
    80001234:	4781                	li	a5,0
    80001236:	42813483          	ld	s1,1064(sp)
}
    8000123a:	853e                	mv	a0,a5
    8000123c:	43813083          	ld	ra,1080(sp)
    80001240:	43013403          	ld	s0,1072(sp)
    80001244:	44010113          	addi	sp,sp,1088
    80001248:	8082                	ret
      release(&msgtable.queues[msqid].lock);
    8000124a:	0705                	addi	a4,a4,1
    8000124c:	00171793          	slli	a5,a4,0x1
    80001250:	97ba                	add	a5,a5,a4
    80001252:	0792                	slli	a5,a5,0x4
    80001254:	00f48533          	add	a0,s1,a5
    80001258:	a99ff0ef          	jal	80000cf0 <release>
      return -1;
    8000125c:	57fd                	li	a5,-1
    8000125e:	42813483          	ld	s1,1064(sp)
    80001262:	bfe1                	j	8000123a <sys_msgsnd+0x1ca>
    return -1;
    80001264:	57fd                	li	a5,-1
    80001266:	bfd1                	j	8000123a <sys_msgsnd+0x1ca>
    return -1;
    80001268:	57fd                	li	a5,-1
    8000126a:	bfc1                	j	8000123a <sys_msgsnd+0x1ca>

000000008000126c <sys_msgrcv>:

uint64
sys_msgrcv(void)
{
    8000126c:	7139                	addi	sp,sp,-64
    8000126e:	fc06                	sd	ra,56(sp)
    80001270:	f822                	sd	s0,48(sp)
    80001272:	0080                	addi	s0,sp,64
  int msqid;
  uint64 msgp;
  int msgsz, flags;
  long msgtyp;

  if(argint(0, &msqid) < 0 || argaddr(1, &msgp) < 0 ||
    80001274:	fdc40593          	addi	a1,s0,-36
    80001278:	4501                	li	a0,0
    8000127a:	71b010ef          	jal	80003194 <argint>
     argint(2, &msgsz) < 0 || argint(3, (int*)&msgtyp) < 0 || 
     argint(4, &flags) < 0)
    return -1;
    8000127e:	57fd                	li	a5,-1
  if(argint(0, &msqid) < 0 || argaddr(1, &msgp) < 0 ||
    80001280:	1c054b63          	bltz	a0,80001456 <sys_msgrcv+0x1ea>
    80001284:	fd040593          	addi	a1,s0,-48
    80001288:	4505                	li	a0,1
    8000128a:	729010ef          	jal	800031b2 <argaddr>
    return -1;
    8000128e:	57fd                	li	a5,-1
  if(argint(0, &msqid) < 0 || argaddr(1, &msgp) < 0 ||
    80001290:	1c054363          	bltz	a0,80001456 <sys_msgrcv+0x1ea>
     argint(2, &msgsz) < 0 || argint(3, (int*)&msgtyp) < 0 || 
    80001294:	fcc40593          	addi	a1,s0,-52
    80001298:	4509                	li	a0,2
    8000129a:	6fb010ef          	jal	80003194 <argint>
    return -1;
    8000129e:	57fd                	li	a5,-1
  if(argint(0, &msqid) < 0 || argaddr(1, &msgp) < 0 ||
    800012a0:	1a054b63          	bltz	a0,80001456 <sys_msgrcv+0x1ea>
     argint(2, &msgsz) < 0 || argint(3, (int*)&msgtyp) < 0 || 
    800012a4:	fc040593          	addi	a1,s0,-64
    800012a8:	450d                	li	a0,3
    800012aa:	6eb010ef          	jal	80003194 <argint>
    return -1;
    800012ae:	57fd                	li	a5,-1
     argint(2, &msgsz) < 0 || argint(3, (int*)&msgtyp) < 0 || 
    800012b0:	1a054363          	bltz	a0,80001456 <sys_msgrcv+0x1ea>
     argint(4, &flags) < 0)
    800012b4:	fc840593          	addi	a1,s0,-56
    800012b8:	4511                	li	a0,4
    800012ba:	6db010ef          	jal	80003194 <argint>
     argint(2, &msgsz) < 0 || argint(3, (int*)&msgtyp) < 0 || 
    800012be:	18054b63          	bltz	a0,80001454 <sys_msgrcv+0x1e8>

  if(msqid < 0 || msqid >= MSG_MAX_QUEUES || !msgtable.queues[msqid].in_use)
    800012c2:	fdc42703          	lw	a4,-36(s0)
    800012c6:	0007061b          	sext.w	a2,a4
    800012ca:	46bd                	li	a3,15
    return -1;
    800012cc:	57fd                	li	a5,-1
  if(msqid < 0 || msqid >= MSG_MAX_QUEUES || !msgtable.queues[msqid].in_use)
    800012ce:	18c6e463          	bltu	a3,a2,80001456 <sys_msgrcv+0x1ea>
    800012d2:	00171793          	slli	a5,a4,0x1
    800012d6:	97ba                	add	a5,a5,a4
    800012d8:	0792                	slli	a5,a5,0x4
    800012da:	00010697          	auipc	a3,0x10
    800012de:	8c668693          	addi	a3,a3,-1850 # 80010ba0 <msgtable>
    800012e2:	97b6                	add	a5,a5,a3
    800012e4:	4f94                	lw	a3,24(a5)
    return -1;
    800012e6:	57fd                	li	a5,-1
  if(msqid < 0 || msqid >= MSG_MAX_QUEUES || !msgtable.queues[msqid].in_use)
    800012e8:	16068763          	beqz	a3,80001456 <sys_msgrcv+0x1ea>

  if(msgsz < 0 || msgsz > MSG_MAX_SIZE)
    800012ec:	fcc42603          	lw	a2,-52(s0)
    800012f0:	40000693          	li	a3,1024
    800012f4:	16c6e163          	bltu	a3,a2,80001456 <sys_msgrcv+0x1ea>
    800012f8:	f426                	sd	s1,40(sp)
    return -1;

  acquire(&msgtable.queues[msqid].lock);
    800012fa:	0705                	addi	a4,a4,1
    800012fc:	00171513          	slli	a0,a4,0x1
    80001300:	953a                	add	a0,a0,a4
    80001302:	0512                	slli	a0,a0,0x4
    80001304:	00010497          	auipc	s1,0x10
    80001308:	89c48493          	addi	s1,s1,-1892 # 80010ba0 <msgtable>
    8000130c:	9526                	add	a0,a0,s1
    8000130e:	94bff0ef          	jal	80000c58 <acquire>

  if(msgtable.queues[msqid].msg_count == 0) {
    80001312:	fdc42783          	lw	a5,-36(s0)
    80001316:	00179713          	slli	a4,a5,0x1
    8000131a:	973e                	add	a4,a4,a5
    8000131c:	0712                	slli	a4,a4,0x4
    8000131e:	94ba                	add	s1,s1,a4
    80001320:	4cd8                	lw	a4,28(s1)
    80001322:	e739                	bnez	a4,80001370 <sys_msgrcv+0x104>
    if(flags & IPC_NOWAIT) {
    80001324:	fc842703          	lw	a4,-56(s0)
    80001328:	03471693          	slli	a3,a4,0x34
    8000132c:	0206d263          	bgez	a3,80001350 <sys_msgrcv+0xe4>
      release(&msgtable.queues[msqid].lock);
    80001330:	00178713          	addi	a4,a5,1
    80001334:	00171793          	slli	a5,a4,0x1
    80001338:	97ba                	add	a5,a5,a4
    8000133a:	0792                	slli	a5,a5,0x4
    8000133c:	00010517          	auipc	a0,0x10
    80001340:	86450513          	addi	a0,a0,-1948 # 80010ba0 <msgtable>
    80001344:	953e                	add	a0,a0,a5
    80001346:	9abff0ef          	jal	80000cf0 <release>
      return -1;
    8000134a:	57fd                	li	a5,-1
    8000134c:	74a2                	ld	s1,40(sp)
    8000134e:	a221                	j	80001456 <sys_msgrcv+0x1ea>
    }
    // Could implement sleeping wait here
    release(&msgtable.queues[msqid].lock);
    80001350:	00178713          	addi	a4,a5,1
    80001354:	00171793          	slli	a5,a4,0x1
    80001358:	97ba                	add	a5,a5,a4
    8000135a:	0792                	slli	a5,a5,0x4
    8000135c:	00010517          	auipc	a0,0x10
    80001360:	84450513          	addi	a0,a0,-1980 # 80010ba0 <msgtable>
    80001364:	953e                	add	a0,a0,a5
    80001366:	98bff0ef          	jal	80000cf0 <release>
    return -1;
    8000136a:	57fd                	li	a5,-1
    8000136c:	74a2                	ld	s1,40(sp)
    8000136e:	a0e5                	j	80001456 <sys_msgrcv+0x1ea>
  }

  int msg_index = msqid * 100 + msgtable.queues[msqid].first_msg;
    80001370:	06400693          	li	a3,100
    80001374:	02f686bb          	mulw	a3,a3,a5
    80001378:	00010617          	auipc	a2,0x10
    8000137c:	82860613          	addi	a2,a2,-2008 # 80010ba0 <msgtable>
    80001380:	00179713          	slli	a4,a5,0x1
    80001384:	973e                	add	a4,a4,a5
    80001386:	0712                	slli	a4,a4,0x4
    80001388:	9732                	add	a4,a4,a2
    8000138a:	5318                	lw	a4,32(a4)
    8000138c:	9eb9                	addw	a3,a3,a4
  struct msg_buf *msg = &msgtable.messages[msg_index];
    8000138e:	00769713          	slli	a4,a3,0x7
    80001392:	9736                	add	a4,a4,a3
    80001394:	070e                	slli	a4,a4,0x3
    80001396:	31870713          	addi	a4,a4,792
    8000139a:	00c704b3          	add	s1,a4,a2

  // Type matching logic
  if(msgtyp > 0 && msg->mtype != msgtyp) {
    8000139e:	fc043603          	ld	a2,-64(s0)
    800013a2:	00c05f63          	blez	a2,800013c0 <sys_msgrcv+0x154>
    800013a6:	00769713          	slli	a4,a3,0x7
    800013aa:	9736                	add	a4,a4,a3
    800013ac:	070e                	slli	a4,a4,0x3
    800013ae:	0000f697          	auipc	a3,0xf
    800013b2:	7f268693          	addi	a3,a3,2034 # 80010ba0 <msgtable>
    800013b6:	9736                	add	a4,a4,a3
    800013b8:	31873703          	ld	a4,792(a4)
    800013bc:	04e61f63          	bne	a2,a4,8000141a <sys_msgrcv+0x1ae>
    release(&msgtable.queues[msqid].lock);
    return -1;
  }
  
  if(copyout(myproc()->pagetable, msgp, (char*)msg, sizeof(struct msg_buf)) < 0) {
    800013c0:	46f000ef          	jal	8000202e <myproc>
    800013c4:	40800693          	li	a3,1032
    800013c8:	8626                	mv	a2,s1
    800013ca:	fd043583          	ld	a1,-48(s0)
    800013ce:	6d28                	ld	a0,88(a0)
    800013d0:	0ad000ef          	jal	80001c7c <copyout>
    800013d4:	04054f63          	bltz	a0,80001432 <sys_msgrcv+0x1c6>
    release(&msgtable.queues[msqid].lock);
    return -1;
  }

  msgtable.queues[msqid].first_msg = (msgtable.queues[msqid].first_msg + 1) % 100;
    800013d8:	fdc42703          	lw	a4,-36(s0)
    800013dc:	0000f517          	auipc	a0,0xf
    800013e0:	7c450513          	addi	a0,a0,1988 # 80010ba0 <msgtable>
    800013e4:	00171793          	slli	a5,a4,0x1
    800013e8:	97ba                	add	a5,a5,a4
    800013ea:	0792                	slli	a5,a5,0x4
    800013ec:	97aa                	add	a5,a5,a0
    800013ee:	5394                	lw	a3,32(a5)
    800013f0:	2685                	addiw	a3,a3,1
    800013f2:	06400613          	li	a2,100
    800013f6:	02c6e6bb          	remw	a3,a3,a2
    800013fa:	d394                	sw	a3,32(a5)
  msgtable.queues[msqid].msg_count--;
    800013fc:	4fd4                	lw	a3,28(a5)
    800013fe:	36fd                	addiw	a3,a3,-1
    80001400:	cfd4                	sw	a3,28(a5)

  release(&msgtable.queues[msqid].lock);
    80001402:	0705                	addi	a4,a4,1
    80001404:	00171793          	slli	a5,a4,0x1
    80001408:	97ba                	add	a5,a5,a4
    8000140a:	0792                	slli	a5,a5,0x4
    8000140c:	953e                	add	a0,a0,a5
    8000140e:	8e3ff0ef          	jal	80000cf0 <release>
  return msgsz;
    80001412:	fcc42783          	lw	a5,-52(s0)
    80001416:	74a2                	ld	s1,40(sp)
    80001418:	a83d                	j	80001456 <sys_msgrcv+0x1ea>
    release(&msgtable.queues[msqid].lock);
    8000141a:	0785                	addi	a5,a5,1
    8000141c:	00179713          	slli	a4,a5,0x1
    80001420:	97ba                	add	a5,a5,a4
    80001422:	0792                	slli	a5,a5,0x4
    80001424:	00f68533          	add	a0,a3,a5
    80001428:	8c9ff0ef          	jal	80000cf0 <release>
    return -1;
    8000142c:	57fd                	li	a5,-1
    8000142e:	74a2                	ld	s1,40(sp)
    80001430:	a01d                	j	80001456 <sys_msgrcv+0x1ea>
    release(&msgtable.queues[msqid].lock);
    80001432:	fdc42703          	lw	a4,-36(s0)
    80001436:	0705                	addi	a4,a4,1
    80001438:	00171793          	slli	a5,a4,0x1
    8000143c:	97ba                	add	a5,a5,a4
    8000143e:	0792                	slli	a5,a5,0x4
    80001440:	0000f517          	auipc	a0,0xf
    80001444:	76050513          	addi	a0,a0,1888 # 80010ba0 <msgtable>
    80001448:	953e                	add	a0,a0,a5
    8000144a:	8a7ff0ef          	jal	80000cf0 <release>
    return -1;
    8000144e:	57fd                	li	a5,-1
    80001450:	74a2                	ld	s1,40(sp)
    80001452:	a011                	j	80001456 <sys_msgrcv+0x1ea>
    return -1;
    80001454:	57fd                	li	a5,-1
}
    80001456:	853e                	mv	a0,a5
    80001458:	70e2                	ld	ra,56(sp)
    8000145a:	7442                	ld	s0,48(sp)
    8000145c:	6121                	addi	sp,sp,64
    8000145e:	8082                	ret

0000000080001460 <sys_msgctl>:

uint64
sys_msgctl(void)
{
    80001460:	715d                	addi	sp,sp,-80
    80001462:	e486                	sd	ra,72(sp)
    80001464:	e0a2                	sd	s0,64(sp)
    80001466:	0880                	addi	s0,sp,80
    int msqid, cmd;
    uint64 buf_addr;
    struct msg_queue *queue;
    struct msqid_ds buf;

    if(argint(0, &msqid) < 0 || argint(1, &cmd) < 0 || argaddr(2, &buf_addr) < 0)
    80001468:	fdc40593          	addi	a1,s0,-36
    8000146c:	4501                	li	a0,0
    8000146e:	527010ef          	jal	80003194 <argint>
        return -1;
    80001472:	57fd                	li	a5,-1
    if(argint(0, &msqid) < 0 || argint(1, &cmd) < 0 || argaddr(2, &buf_addr) < 0)
    80001474:	1c054063          	bltz	a0,80001634 <sys_msgctl+0x1d4>
    80001478:	fd840593          	addi	a1,s0,-40
    8000147c:	4505                	li	a0,1
    8000147e:	517010ef          	jal	80003194 <argint>
        return -1;
    80001482:	57fd                	li	a5,-1
    if(argint(0, &msqid) < 0 || argint(1, &cmd) < 0 || argaddr(2, &buf_addr) < 0)
    80001484:	1a054863          	bltz	a0,80001634 <sys_msgctl+0x1d4>
    80001488:	fd040593          	addi	a1,s0,-48
    8000148c:	4509                	li	a0,2
    8000148e:	525010ef          	jal	800031b2 <argaddr>
    80001492:	18054e63          	bltz	a0,8000162e <sys_msgctl+0x1ce>
    80001496:	f84a                	sd	s2,48(sp)

    // Check if msqid is valid
    if(msqid < 0 || msqid >= MSG_MAX_QUEUES)
    80001498:	fdc42903          	lw	s2,-36(s0)
    8000149c:	0009069b          	sext.w	a3,s2
    800014a0:	473d                	li	a4,15
        return -1;
    800014a2:	57fd                	li	a5,-1
    if(msqid < 0 || msqid >= MSG_MAX_QUEUES)
    800014a4:	18d76763          	bltu	a4,a3,80001632 <sys_msgctl+0x1d2>
    800014a8:	fc26                	sd	s1,56(sp)

    queue = &msgtable.queues[msqid];

    acquire(&queue->lock);
    800014aa:	00190793          	addi	a5,s2,1
    800014ae:	00179493          	slli	s1,a5,0x1
    800014b2:	94be                	add	s1,s1,a5
    800014b4:	0492                	slli	s1,s1,0x4
    800014b6:	0000f797          	auipc	a5,0xf
    800014ba:	6ea78793          	addi	a5,a5,1770 # 80010ba0 <msgtable>
    800014be:	94be                	add	s1,s1,a5
    800014c0:	8526                	mv	a0,s1
    800014c2:	f96ff0ef          	jal	80000c58 <acquire>

    switch(cmd) {
    800014c6:	fd842783          	lw	a5,-40(s0)
    800014ca:	4705                	li	a4,1
    800014cc:	0ae78363          	beq	a5,a4,80001572 <sys_msgctl+0x112>
    800014d0:	4709                	li	a4,2
    800014d2:	00e78b63          	beq	a5,a4,800014e8 <sys_msgctl+0x88>
    800014d6:	10078163          	beqz	a5,800015d8 <sys_msgctl+0x178>
            queue->first_msg = 0;
            queue->last_msg = 0;
            break;

        default:
            release(&queue->lock);
    800014da:	8526                	mv	a0,s1
    800014dc:	815ff0ef          	jal	80000cf0 <release>
            return -1;
    800014e0:	57fd                	li	a5,-1
    800014e2:	74e2                	ld	s1,56(sp)
    800014e4:	7942                	ld	s2,48(sp)
    800014e6:	a2b9                	j	80001634 <sys_msgctl+0x1d4>
            if(!queue->in_use) {
    800014e8:	00191793          	slli	a5,s2,0x1
    800014ec:	97ca                	add	a5,a5,s2
    800014ee:	0792                	slli	a5,a5,0x4
    800014f0:	0000f717          	auipc	a4,0xf
    800014f4:	6b070713          	addi	a4,a4,1712 # 80010ba0 <msgtable>
    800014f8:	97ba                	add	a5,a5,a4
    800014fa:	4f9c                	lw	a5,24(a5)
    800014fc:	c7a5                	beqz	a5,80001564 <sys_msgctl+0x104>
    uds->msg_perm = 0; 
    800014fe:	fa042823          	sw	zero,-80(s0)
    uds->msg_qnum = kds->msg_count;
    80001502:	0000f697          	auipc	a3,0xf
    80001506:	69e68693          	addi	a3,a3,1694 # 80010ba0 <msgtable>
    8000150a:	00191793          	slli	a5,s2,0x1
    8000150e:	01278733          	add	a4,a5,s2
    80001512:	0712                	slli	a4,a4,0x4
    80001514:	9736                	add	a4,a4,a3
    80001516:	4f58                	lw	a4,28(a4)
    80001518:	fae42a23          	sw	a4,-76(s0)
    uds->msg_qbytes = kds->queue_size;
    8000151c:	97ca                	add	a5,a5,s2
    8000151e:	0792                	slli	a5,a5,0x4
    80001520:	96be                	add	a3,a3,a5
    80001522:	569c                	lw	a5,40(a3)
    80001524:	faf42c23          	sw	a5,-72(s0)
    uds->msg_lspid = 0;
    80001528:	fa042e23          	sw	zero,-68(s0)
    uds->msg_lrpid = 0;
    8000152c:	fc042023          	sw	zero,-64(s0)
    uds->msg_stime = 0;
    80001530:	fc042223          	sw	zero,-60(s0)
    uds->msg_rtime = 0;
    80001534:	fc042423          	sw	zero,-56(s0)
    uds->msg_ctime = 0;
    80001538:	fc042623          	sw	zero,-52(s0)
            if(copyout(myproc()->pagetable, buf_addr, (char*)&buf, sizeof(buf)) < 0) {
    8000153c:	2f3000ef          	jal	8000202e <myproc>
    80001540:	02000693          	li	a3,32
    80001544:	fb040613          	addi	a2,s0,-80
    80001548:	fd043583          	ld	a1,-48(s0)
    8000154c:	6d28                	ld	a0,88(a0)
    8000154e:	72e000ef          	jal	80001c7c <copyout>
    80001552:	0c055063          	bgez	a0,80001612 <sys_msgctl+0x1b2>
                release(&queue->lock);
    80001556:	8526                	mv	a0,s1
    80001558:	f98ff0ef          	jal	80000cf0 <release>
                return -1;
    8000155c:	57fd                	li	a5,-1
    8000155e:	74e2                	ld	s1,56(sp)
    80001560:	7942                	ld	s2,48(sp)
    80001562:	a8c9                	j	80001634 <sys_msgctl+0x1d4>
                release(&queue->lock);
    80001564:	8526                	mv	a0,s1
    80001566:	f8aff0ef          	jal	80000cf0 <release>
                return -1;
    8000156a:	57fd                	li	a5,-1
    8000156c:	74e2                	ld	s1,56(sp)
    8000156e:	7942                	ld	s2,48(sp)
    80001570:	a0d1                	j	80001634 <sys_msgctl+0x1d4>
            if(!queue->in_use) {
    80001572:	00191793          	slli	a5,s2,0x1
    80001576:	97ca                	add	a5,a5,s2
    80001578:	0792                	slli	a5,a5,0x4
    8000157a:	0000f717          	auipc	a4,0xf
    8000157e:	62670713          	addi	a4,a4,1574 # 80010ba0 <msgtable>
    80001582:	97ba                	add	a5,a5,a4
    80001584:	4f9c                	lw	a5,24(a5)
    80001586:	cb9d                	beqz	a5,800015bc <sys_msgctl+0x15c>
            if(copyin(myproc()->pagetable, (char*)&buf, buf_addr, sizeof(buf)) < 0) {
    80001588:	2a7000ef          	jal	8000202e <myproc>
    8000158c:	02000693          	li	a3,32
    80001590:	fd043603          	ld	a2,-48(s0)
    80001594:	fb040593          	addi	a1,s0,-80
    80001598:	6d28                	ld	a0,88(a0)
    8000159a:	7b8000ef          	jal	80001d52 <copyin>
    8000159e:	02054663          	bltz	a0,800015ca <sys_msgctl+0x16a>
    kds->queue_size = uds->msg_qbytes;
    800015a2:	00191793          	slli	a5,s2,0x1
    800015a6:	97ca                	add	a5,a5,s2
    800015a8:	0792                	slli	a5,a5,0x4
    800015aa:	0000f717          	auipc	a4,0xf
    800015ae:	5f670713          	addi	a4,a4,1526 # 80010ba0 <msgtable>
    800015b2:	97ba                	add	a5,a5,a4
    800015b4:	fb842703          	lw	a4,-72(s0)
    800015b8:	d798                	sw	a4,40(a5)
}
    800015ba:	a8a1                	j	80001612 <sys_msgctl+0x1b2>
                release(&queue->lock);
    800015bc:	8526                	mv	a0,s1
    800015be:	f32ff0ef          	jal	80000cf0 <release>
                return -1;
    800015c2:	57fd                	li	a5,-1
    800015c4:	74e2                	ld	s1,56(sp)
    800015c6:	7942                	ld	s2,48(sp)
    800015c8:	a0b5                	j	80001634 <sys_msgctl+0x1d4>
                release(&queue->lock);
    800015ca:	8526                	mv	a0,s1
    800015cc:	f24ff0ef          	jal	80000cf0 <release>
                return -1;
    800015d0:	57fd                	li	a5,-1
    800015d2:	74e2                	ld	s1,56(sp)
    800015d4:	7942                	ld	s2,48(sp)
    800015d6:	a8b9                	j	80001634 <sys_msgctl+0x1d4>
            if(!queue->in_use) {
    800015d8:	00191793          	slli	a5,s2,0x1
    800015dc:	97ca                	add	a5,a5,s2
    800015de:	0792                	slli	a5,a5,0x4
    800015e0:	0000f717          	auipc	a4,0xf
    800015e4:	5c070713          	addi	a4,a4,1472 # 80010ba0 <msgtable>
    800015e8:	97ba                	add	a5,a5,a4
    800015ea:	4f9c                	lw	a5,24(a5)
    800015ec:	cb95                	beqz	a5,80001620 <sys_msgctl+0x1c0>
            queue->in_use = 0;
    800015ee:	0000f697          	auipc	a3,0xf
    800015f2:	5b268693          	addi	a3,a3,1458 # 80010ba0 <msgtable>
    800015f6:	00191713          	slli	a4,s2,0x1
    800015fa:	012707b3          	add	a5,a4,s2
    800015fe:	0792                	slli	a5,a5,0x4
    80001600:	97b6                	add	a5,a5,a3
    80001602:	0007ac23          	sw	zero,24(a5)
            queue->msg_count = 0;
    80001606:	0007ae23          	sw	zero,28(a5)
            queue->first_msg = 0;
    8000160a:	0207a023          	sw	zero,32(a5)
            queue->last_msg = 0;
    8000160e:	0207a223          	sw	zero,36(a5)
    }

    release(&queue->lock);
    80001612:	8526                	mv	a0,s1
    80001614:	edcff0ef          	jal	80000cf0 <release>
    return 0;
    80001618:	4781                	li	a5,0
    8000161a:	74e2                	ld	s1,56(sp)
    8000161c:	7942                	ld	s2,48(sp)
    8000161e:	a819                	j	80001634 <sys_msgctl+0x1d4>
                release(&queue->lock);
    80001620:	8526                	mv	a0,s1
    80001622:	eceff0ef          	jal	80000cf0 <release>
                return -1;
    80001626:	57fd                	li	a5,-1
    80001628:	74e2                	ld	s1,56(sp)
    8000162a:	7942                	ld	s2,48(sp)
    8000162c:	a021                	j	80001634 <sys_msgctl+0x1d4>
        return -1;
    8000162e:	57fd                	li	a5,-1
    80001630:	a011                	j	80001634 <sys_msgctl+0x1d4>
    80001632:	7942                	ld	s2,48(sp)
    80001634:	853e                	mv	a0,a5
    80001636:	60a6                	ld	ra,72(sp)
    80001638:	6406                	ld	s0,64(sp)
    8000163a:	6161                	addi	sp,sp,80
    8000163c:	8082                	ret

000000008000163e <kvminithart>:

// Switch h/w page table register to the kernel's page table,
// and enable paging.
void
kvminithart()
{
    8000163e:	1141                	addi	sp,sp,-16
    80001640:	e422                	sd	s0,8(sp)
    80001642:	0800                	addi	s0,sp,16
// flush the TLB.
static inline void
sfence_vma()
{
  // the zero, zero means flush all TLB entries.
  asm volatile("sfence.vma zero, zero");
    80001644:	12000073          	sfence.vma
  // wait for any previous writes to the page table memory to finish.
  sfence_vma();

  w_satp(MAKE_SATP(kernel_pagetable));
    80001648:	00007797          	auipc	a5,0x7
    8000164c:	4187b783          	ld	a5,1048(a5) # 80008a60 <kernel_pagetable>
    80001650:	83b1                	srli	a5,a5,0xc
    80001652:	577d                	li	a4,-1
    80001654:	177e                	slli	a4,a4,0x3f
    80001656:	8fd9                	or	a5,a5,a4
  asm volatile("csrw satp, %0" : : "r" (x));
    80001658:	18079073          	csrw	satp,a5
  asm volatile("sfence.vma zero, zero");
    8000165c:	12000073          	sfence.vma

  // flush stale entries from the TLB.
  sfence_vma();
}
    80001660:	6422                	ld	s0,8(sp)
    80001662:	0141                	addi	sp,sp,16
    80001664:	8082                	ret

0000000080001666 <walk>:
//   21..29 -- 9 bits of level-1 index.
//   12..20 -- 9 bits of level-0 index.
//    0..11 -- 12 bits of byte offset within the page.
pte_t *
walk(pagetable_t pagetable, uint64 va, int alloc)
{
    80001666:	7139                	addi	sp,sp,-64
    80001668:	fc06                	sd	ra,56(sp)
    8000166a:	f822                	sd	s0,48(sp)
    8000166c:	f426                	sd	s1,40(sp)
    8000166e:	f04a                	sd	s2,32(sp)
    80001670:	ec4e                	sd	s3,24(sp)
    80001672:	e852                	sd	s4,16(sp)
    80001674:	e456                	sd	s5,8(sp)
    80001676:	e05a                	sd	s6,0(sp)
    80001678:	0080                	addi	s0,sp,64
    8000167a:	84aa                	mv	s1,a0
    8000167c:	89ae                	mv	s3,a1
    8000167e:	8ab2                	mv	s5,a2
  if(va >= MAXVA)
    80001680:	57fd                	li	a5,-1
    80001682:	83e9                	srli	a5,a5,0x1a
    80001684:	4a79                	li	s4,30
    panic("walk");

  for(int level = 2; level > 0; level--) {
    80001686:	4b31                	li	s6,12
  if(va >= MAXVA)
    80001688:	02b7fc63          	bgeu	a5,a1,800016c0 <walk+0x5a>
    panic("walk");
    8000168c:	00007517          	auipc	a0,0x7
    80001690:	a7450513          	addi	a0,a0,-1420 # 80008100 <etext+0x100>
    80001694:	964ff0ef          	jal	800007f8 <panic>
    pte_t *pte = &pagetable[PX(level, va)];
    if(*pte & PTE_V) {
      pagetable = (pagetable_t)PTE2PA(*pte);
    } else {
      if(!alloc || (pagetable = (pde_t*)kalloc()) == 0)
    80001698:	060a8263          	beqz	s5,800016fc <walk+0x96>
    8000169c:	cecff0ef          	jal	80000b88 <kalloc>
    800016a0:	84aa                	mv	s1,a0
    800016a2:	c139                	beqz	a0,800016e8 <walk+0x82>
        return 0;
      memset(pagetable, 0, PGSIZE);
    800016a4:	6605                	lui	a2,0x1
    800016a6:	4581                	li	a1,0
    800016a8:	e84ff0ef          	jal	80000d2c <memset>
      *pte = PA2PTE(pagetable) | PTE_V;
    800016ac:	00c4d793          	srli	a5,s1,0xc
    800016b0:	07aa                	slli	a5,a5,0xa
    800016b2:	0017e793          	ori	a5,a5,1
    800016b6:	00f93023          	sd	a5,0(s2)
  for(int level = 2; level > 0; level--) {
    800016ba:	3a5d                	addiw	s4,s4,-9
    800016bc:	036a0063          	beq	s4,s6,800016dc <walk+0x76>
    pte_t *pte = &pagetable[PX(level, va)];
    800016c0:	0149d933          	srl	s2,s3,s4
    800016c4:	1ff97913          	andi	s2,s2,511
    800016c8:	090e                	slli	s2,s2,0x3
    800016ca:	9926                	add	s2,s2,s1
    if(*pte & PTE_V) {
    800016cc:	00093483          	ld	s1,0(s2)
    800016d0:	0014f793          	andi	a5,s1,1
    800016d4:	d3f1                	beqz	a5,80001698 <walk+0x32>
      pagetable = (pagetable_t)PTE2PA(*pte);
    800016d6:	80a9                	srli	s1,s1,0xa
    800016d8:	04b2                	slli	s1,s1,0xc
    800016da:	b7c5                	j	800016ba <walk+0x54>
    }
  }
  return &pagetable[PX(0, va)];
    800016dc:	00c9d513          	srli	a0,s3,0xc
    800016e0:	1ff57513          	andi	a0,a0,511
    800016e4:	050e                	slli	a0,a0,0x3
    800016e6:	9526                	add	a0,a0,s1
}
    800016e8:	70e2                	ld	ra,56(sp)
    800016ea:	7442                	ld	s0,48(sp)
    800016ec:	74a2                	ld	s1,40(sp)
    800016ee:	7902                	ld	s2,32(sp)
    800016f0:	69e2                	ld	s3,24(sp)
    800016f2:	6a42                	ld	s4,16(sp)
    800016f4:	6aa2                	ld	s5,8(sp)
    800016f6:	6b02                	ld	s6,0(sp)
    800016f8:	6121                	addi	sp,sp,64
    800016fa:	8082                	ret
        return 0;
    800016fc:	4501                	li	a0,0
    800016fe:	b7ed                	j	800016e8 <walk+0x82>

0000000080001700 <walkaddr>:
walkaddr(pagetable_t pagetable, uint64 va)
{
  pte_t *pte;
  uint64 pa;

  if(va >= MAXVA)
    80001700:	57fd                	li	a5,-1
    80001702:	83e9                	srli	a5,a5,0x1a
    80001704:	00b7f463          	bgeu	a5,a1,8000170c <walkaddr+0xc>
    return 0;
    80001708:	4501                	li	a0,0
    return 0;
  if((*pte & PTE_U) == 0)
    return 0;
  pa = PTE2PA(*pte);
  return pa;
}
    8000170a:	8082                	ret
{
    8000170c:	1141                	addi	sp,sp,-16
    8000170e:	e406                	sd	ra,8(sp)
    80001710:	e022                	sd	s0,0(sp)
    80001712:	0800                	addi	s0,sp,16
  pte = walk(pagetable, va, 0);
    80001714:	4601                	li	a2,0
    80001716:	f51ff0ef          	jal	80001666 <walk>
  if(pte == 0)
    8000171a:	c105                	beqz	a0,8000173a <walkaddr+0x3a>
  if((*pte & PTE_V) == 0)
    8000171c:	611c                	ld	a5,0(a0)
  if((*pte & PTE_U) == 0)
    8000171e:	0117f693          	andi	a3,a5,17
    80001722:	4745                	li	a4,17
    return 0;
    80001724:	4501                	li	a0,0
  if((*pte & PTE_U) == 0)
    80001726:	00e68663          	beq	a3,a4,80001732 <walkaddr+0x32>
}
    8000172a:	60a2                	ld	ra,8(sp)
    8000172c:	6402                	ld	s0,0(sp)
    8000172e:	0141                	addi	sp,sp,16
    80001730:	8082                	ret
  pa = PTE2PA(*pte);
    80001732:	83a9                	srli	a5,a5,0xa
    80001734:	00c79513          	slli	a0,a5,0xc
  return pa;
    80001738:	bfcd                	j	8000172a <walkaddr+0x2a>
    return 0;
    8000173a:	4501                	li	a0,0
    8000173c:	b7fd                	j	8000172a <walkaddr+0x2a>

000000008000173e <mappages>:
// va and size MUST be page-aligned.
// Returns 0 on success, -1 if walk() couldn't
// allocate a needed page-table page.
int
mappages(pagetable_t pagetable, uint64 va, uint64 size, uint64 pa, int perm)
{
    8000173e:	715d                	addi	sp,sp,-80
    80001740:	e486                	sd	ra,72(sp)
    80001742:	e0a2                	sd	s0,64(sp)
    80001744:	fc26                	sd	s1,56(sp)
    80001746:	f84a                	sd	s2,48(sp)
    80001748:	f44e                	sd	s3,40(sp)
    8000174a:	f052                	sd	s4,32(sp)
    8000174c:	ec56                	sd	s5,24(sp)
    8000174e:	e85a                	sd	s6,16(sp)
    80001750:	e45e                	sd	s7,8(sp)
    80001752:	0880                	addi	s0,sp,80
  uint64 a, last;
  pte_t *pte;

  if((va % PGSIZE) != 0)
    80001754:	03459793          	slli	a5,a1,0x34
    80001758:	e7a9                	bnez	a5,800017a2 <mappages+0x64>
    8000175a:	8aaa                	mv	s5,a0
    8000175c:	8b3a                	mv	s6,a4
    panic("mappages: va not aligned");

  if((size % PGSIZE) != 0)
    8000175e:	03461793          	slli	a5,a2,0x34
    80001762:	e7b1                	bnez	a5,800017ae <mappages+0x70>
    panic("mappages: size not aligned");

  if(size == 0)
    80001764:	ca39                	beqz	a2,800017ba <mappages+0x7c>
    panic("mappages: size");
  
  a = va;
  last = va + size - PGSIZE;
    80001766:	77fd                	lui	a5,0xfffff
    80001768:	963e                	add	a2,a2,a5
    8000176a:	00b609b3          	add	s3,a2,a1
  a = va;
    8000176e:	892e                	mv	s2,a1
    80001770:	40b68a33          	sub	s4,a3,a1
    if(*pte & PTE_V)
      panic("mappages: remap");
    *pte = PA2PTE(pa) | perm | PTE_V;
    if(a == last)
      break;
    a += PGSIZE;
    80001774:	6b85                	lui	s7,0x1
    80001776:	014904b3          	add	s1,s2,s4
    if((pte = walk(pagetable, a, 1)) == 0)
    8000177a:	4605                	li	a2,1
    8000177c:	85ca                	mv	a1,s2
    8000177e:	8556                	mv	a0,s5
    80001780:	ee7ff0ef          	jal	80001666 <walk>
    80001784:	c539                	beqz	a0,800017d2 <mappages+0x94>
    if(*pte & PTE_V)
    80001786:	611c                	ld	a5,0(a0)
    80001788:	8b85                	andi	a5,a5,1
    8000178a:	ef95                	bnez	a5,800017c6 <mappages+0x88>
    *pte = PA2PTE(pa) | perm | PTE_V;
    8000178c:	80b1                	srli	s1,s1,0xc
    8000178e:	04aa                	slli	s1,s1,0xa
    80001790:	0164e4b3          	or	s1,s1,s6
    80001794:	0014e493          	ori	s1,s1,1
    80001798:	e104                	sd	s1,0(a0)
    if(a == last)
    8000179a:	05390863          	beq	s2,s3,800017ea <mappages+0xac>
    a += PGSIZE;
    8000179e:	995e                	add	s2,s2,s7
    if((pte = walk(pagetable, a, 1)) == 0)
    800017a0:	bfd9                	j	80001776 <mappages+0x38>
    panic("mappages: va not aligned");
    800017a2:	00007517          	auipc	a0,0x7
    800017a6:	96650513          	addi	a0,a0,-1690 # 80008108 <etext+0x108>
    800017aa:	84eff0ef          	jal	800007f8 <panic>
    panic("mappages: size not aligned");
    800017ae:	00007517          	auipc	a0,0x7
    800017b2:	97a50513          	addi	a0,a0,-1670 # 80008128 <etext+0x128>
    800017b6:	842ff0ef          	jal	800007f8 <panic>
    panic("mappages: size");
    800017ba:	00007517          	auipc	a0,0x7
    800017be:	98e50513          	addi	a0,a0,-1650 # 80008148 <etext+0x148>
    800017c2:	836ff0ef          	jal	800007f8 <panic>
      panic("mappages: remap");
    800017c6:	00007517          	auipc	a0,0x7
    800017ca:	99250513          	addi	a0,a0,-1646 # 80008158 <etext+0x158>
    800017ce:	82aff0ef          	jal	800007f8 <panic>
      return -1;
    800017d2:	557d                	li	a0,-1
    pa += PGSIZE;
  }
  return 0;
}
    800017d4:	60a6                	ld	ra,72(sp)
    800017d6:	6406                	ld	s0,64(sp)
    800017d8:	74e2                	ld	s1,56(sp)
    800017da:	7942                	ld	s2,48(sp)
    800017dc:	79a2                	ld	s3,40(sp)
    800017de:	7a02                	ld	s4,32(sp)
    800017e0:	6ae2                	ld	s5,24(sp)
    800017e2:	6b42                	ld	s6,16(sp)
    800017e4:	6ba2                	ld	s7,8(sp)
    800017e6:	6161                	addi	sp,sp,80
    800017e8:	8082                	ret
  return 0;
    800017ea:	4501                	li	a0,0
    800017ec:	b7e5                	j	800017d4 <mappages+0x96>

00000000800017ee <kvmmap>:
{
    800017ee:	1141                	addi	sp,sp,-16
    800017f0:	e406                	sd	ra,8(sp)
    800017f2:	e022                	sd	s0,0(sp)
    800017f4:	0800                	addi	s0,sp,16
    800017f6:	87b6                	mv	a5,a3
  if(mappages(kpgtbl, va, sz, pa, perm) != 0)
    800017f8:	86b2                	mv	a3,a2
    800017fa:	863e                	mv	a2,a5
    800017fc:	f43ff0ef          	jal	8000173e <mappages>
    80001800:	e509                	bnez	a0,8000180a <kvmmap+0x1c>
}
    80001802:	60a2                	ld	ra,8(sp)
    80001804:	6402                	ld	s0,0(sp)
    80001806:	0141                	addi	sp,sp,16
    80001808:	8082                	ret
    panic("kvmmap");
    8000180a:	00007517          	auipc	a0,0x7
    8000180e:	95e50513          	addi	a0,a0,-1698 # 80008168 <etext+0x168>
    80001812:	fe7fe0ef          	jal	800007f8 <panic>

0000000080001816 <kvmmake>:
{
    80001816:	1101                	addi	sp,sp,-32
    80001818:	ec06                	sd	ra,24(sp)
    8000181a:	e822                	sd	s0,16(sp)
    8000181c:	e426                	sd	s1,8(sp)
    8000181e:	e04a                	sd	s2,0(sp)
    80001820:	1000                	addi	s0,sp,32
  kpgtbl = (pagetable_t) kalloc();
    80001822:	b66ff0ef          	jal	80000b88 <kalloc>
    80001826:	84aa                	mv	s1,a0
  memset(kpgtbl, 0, PGSIZE);
    80001828:	6605                	lui	a2,0x1
    8000182a:	4581                	li	a1,0
    8000182c:	d00ff0ef          	jal	80000d2c <memset>
  kvmmap(kpgtbl, UART0, UART0, PGSIZE, PTE_R | PTE_W);
    80001830:	4719                	li	a4,6
    80001832:	6685                	lui	a3,0x1
    80001834:	10000637          	lui	a2,0x10000
    80001838:	100005b7          	lui	a1,0x10000
    8000183c:	8526                	mv	a0,s1
    8000183e:	fb1ff0ef          	jal	800017ee <kvmmap>
  kvmmap(kpgtbl, VIRTIO0, VIRTIO0, PGSIZE, PTE_R | PTE_W);
    80001842:	4719                	li	a4,6
    80001844:	6685                	lui	a3,0x1
    80001846:	10001637          	lui	a2,0x10001
    8000184a:	100015b7          	lui	a1,0x10001
    8000184e:	8526                	mv	a0,s1
    80001850:	f9fff0ef          	jal	800017ee <kvmmap>
  kvmmap(kpgtbl, PLIC, PLIC, 0x4000000, PTE_R | PTE_W);
    80001854:	4719                	li	a4,6
    80001856:	040006b7          	lui	a3,0x4000
    8000185a:	0c000637          	lui	a2,0xc000
    8000185e:	0c0005b7          	lui	a1,0xc000
    80001862:	8526                	mv	a0,s1
    80001864:	f8bff0ef          	jal	800017ee <kvmmap>
  kvmmap(kpgtbl, KERNBASE, KERNBASE, (uint64)etext-KERNBASE, PTE_R | PTE_X);
    80001868:	00006917          	auipc	s2,0x6
    8000186c:	79890913          	addi	s2,s2,1944 # 80008000 <etext>
    80001870:	4729                	li	a4,10
    80001872:	80006697          	auipc	a3,0x80006
    80001876:	78e68693          	addi	a3,a3,1934 # 8000 <_entry-0x7fff8000>
    8000187a:	4605                	li	a2,1
    8000187c:	067e                	slli	a2,a2,0x1f
    8000187e:	85b2                	mv	a1,a2
    80001880:	8526                	mv	a0,s1
    80001882:	f6dff0ef          	jal	800017ee <kvmmap>
  kvmmap(kpgtbl, (uint64)etext, (uint64)etext, PHYSTOP-(uint64)etext, PTE_R | PTE_W);
    80001886:	46c5                	li	a3,17
    80001888:	06ee                	slli	a3,a3,0x1b
    8000188a:	4719                	li	a4,6
    8000188c:	412686b3          	sub	a3,a3,s2
    80001890:	864a                	mv	a2,s2
    80001892:	85ca                	mv	a1,s2
    80001894:	8526                	mv	a0,s1
    80001896:	f59ff0ef          	jal	800017ee <kvmmap>
  kvmmap(kpgtbl, TRAMPOLINE, (uint64)trampoline, PGSIZE, PTE_R | PTE_X);
    8000189a:	4729                	li	a4,10
    8000189c:	6685                	lui	a3,0x1
    8000189e:	00005617          	auipc	a2,0x5
    800018a2:	76260613          	addi	a2,a2,1890 # 80007000 <_trampoline>
    800018a6:	040005b7          	lui	a1,0x4000
    800018aa:	15fd                	addi	a1,a1,-1 # 3ffffff <_entry-0x7c000001>
    800018ac:	05b2                	slli	a1,a1,0xc
    800018ae:	8526                	mv	a0,s1
    800018b0:	f3fff0ef          	jal	800017ee <kvmmap>
  proc_mapstacks(kpgtbl);
    800018b4:	8526                	mv	a0,s1
    800018b6:	5da000ef          	jal	80001e90 <proc_mapstacks>
}
    800018ba:	8526                	mv	a0,s1
    800018bc:	60e2                	ld	ra,24(sp)
    800018be:	6442                	ld	s0,16(sp)
    800018c0:	64a2                	ld	s1,8(sp)
    800018c2:	6902                	ld	s2,0(sp)
    800018c4:	6105                	addi	sp,sp,32
    800018c6:	8082                	ret

00000000800018c8 <kvminit>:
{
    800018c8:	1141                	addi	sp,sp,-16
    800018ca:	e406                	sd	ra,8(sp)
    800018cc:	e022                	sd	s0,0(sp)
    800018ce:	0800                	addi	s0,sp,16
  kernel_pagetable = kvmmake();
    800018d0:	f47ff0ef          	jal	80001816 <kvmmake>
    800018d4:	00007797          	auipc	a5,0x7
    800018d8:	18a7b623          	sd	a0,396(a5) # 80008a60 <kernel_pagetable>
}
    800018dc:	60a2                	ld	ra,8(sp)
    800018de:	6402                	ld	s0,0(sp)
    800018e0:	0141                	addi	sp,sp,16
    800018e2:	8082                	ret

00000000800018e4 <uvmunmap>:
// Remove npages of mappings starting from va. va must be
// page-aligned. The mappings must exist.
// Optionally free the physical memory.
void
uvmunmap(pagetable_t pagetable, uint64 va, uint64 npages, int do_free)
{
    800018e4:	715d                	addi	sp,sp,-80
    800018e6:	e486                	sd	ra,72(sp)
    800018e8:	e0a2                	sd	s0,64(sp)
    800018ea:	0880                	addi	s0,sp,80
  uint64 a;
  pte_t *pte;

  if((va % PGSIZE) != 0)
    800018ec:	03459793          	slli	a5,a1,0x34
    800018f0:	e39d                	bnez	a5,80001916 <uvmunmap+0x32>
    800018f2:	f84a                	sd	s2,48(sp)
    800018f4:	f44e                	sd	s3,40(sp)
    800018f6:	f052                	sd	s4,32(sp)
    800018f8:	ec56                	sd	s5,24(sp)
    800018fa:	e85a                	sd	s6,16(sp)
    800018fc:	e45e                	sd	s7,8(sp)
    800018fe:	8a2a                	mv	s4,a0
    80001900:	892e                	mv	s2,a1
    80001902:	8ab6                	mv	s5,a3
    panic("uvmunmap: not aligned");

  for(a = va; a < va + npages*PGSIZE; a += PGSIZE){
    80001904:	0632                	slli	a2,a2,0xc
    80001906:	00b609b3          	add	s3,a2,a1
    if((pte = walk(pagetable, a, 0)) == 0)
      panic("uvmunmap: walk");
    if((*pte & PTE_V) == 0)
      panic("uvmunmap: not mapped");
    if(PTE_FLAGS(*pte) == PTE_V)
    8000190a:	4b85                	li	s7,1
  for(a = va; a < va + npages*PGSIZE; a += PGSIZE){
    8000190c:	6b05                	lui	s6,0x1
    8000190e:	0735ff63          	bgeu	a1,s3,8000198c <uvmunmap+0xa8>
    80001912:	fc26                	sd	s1,56(sp)
    80001914:	a0a9                	j	8000195e <uvmunmap+0x7a>
    80001916:	fc26                	sd	s1,56(sp)
    80001918:	f84a                	sd	s2,48(sp)
    8000191a:	f44e                	sd	s3,40(sp)
    8000191c:	f052                	sd	s4,32(sp)
    8000191e:	ec56                	sd	s5,24(sp)
    80001920:	e85a                	sd	s6,16(sp)
    80001922:	e45e                	sd	s7,8(sp)
    panic("uvmunmap: not aligned");
    80001924:	00007517          	auipc	a0,0x7
    80001928:	84c50513          	addi	a0,a0,-1972 # 80008170 <etext+0x170>
    8000192c:	ecdfe0ef          	jal	800007f8 <panic>
      panic("uvmunmap: walk");
    80001930:	00007517          	auipc	a0,0x7
    80001934:	85850513          	addi	a0,a0,-1960 # 80008188 <etext+0x188>
    80001938:	ec1fe0ef          	jal	800007f8 <panic>
      panic("uvmunmap: not mapped");
    8000193c:	00007517          	auipc	a0,0x7
    80001940:	85c50513          	addi	a0,a0,-1956 # 80008198 <etext+0x198>
    80001944:	eb5fe0ef          	jal	800007f8 <panic>
      panic("uvmunmap: not a leaf");
    80001948:	00007517          	auipc	a0,0x7
    8000194c:	86850513          	addi	a0,a0,-1944 # 800081b0 <etext+0x1b0>
    80001950:	ea9fe0ef          	jal	800007f8 <panic>
    if(do_free){
      uint64 pa = PTE2PA(*pte);
      kfree((void*)pa);
    }
    *pte = 0;
    80001954:	0004b023          	sd	zero,0(s1)
  for(a = va; a < va + npages*PGSIZE; a += PGSIZE){
    80001958:	995a                	add	s2,s2,s6
    8000195a:	03397863          	bgeu	s2,s3,8000198a <uvmunmap+0xa6>
    if((pte = walk(pagetable, a, 0)) == 0)
    8000195e:	4601                	li	a2,0
    80001960:	85ca                	mv	a1,s2
    80001962:	8552                	mv	a0,s4
    80001964:	d03ff0ef          	jal	80001666 <walk>
    80001968:	84aa                	mv	s1,a0
    8000196a:	d179                	beqz	a0,80001930 <uvmunmap+0x4c>
    if((*pte & PTE_V) == 0)
    8000196c:	6108                	ld	a0,0(a0)
    8000196e:	00157793          	andi	a5,a0,1
    80001972:	d7e9                	beqz	a5,8000193c <uvmunmap+0x58>
    if(PTE_FLAGS(*pte) == PTE_V)
    80001974:	3ff57793          	andi	a5,a0,1023
    80001978:	fd7788e3          	beq	a5,s7,80001948 <uvmunmap+0x64>
    if(do_free){
    8000197c:	fc0a8ce3          	beqz	s5,80001954 <uvmunmap+0x70>
      uint64 pa = PTE2PA(*pte);
    80001980:	8129                	srli	a0,a0,0xa
      kfree((void*)pa);
    80001982:	0532                	slli	a0,a0,0xc
    80001984:	922ff0ef          	jal	80000aa6 <kfree>
    80001988:	b7f1                	j	80001954 <uvmunmap+0x70>
    8000198a:	74e2                	ld	s1,56(sp)
    8000198c:	7942                	ld	s2,48(sp)
    8000198e:	79a2                	ld	s3,40(sp)
    80001990:	7a02                	ld	s4,32(sp)
    80001992:	6ae2                	ld	s5,24(sp)
    80001994:	6b42                	ld	s6,16(sp)
    80001996:	6ba2                	ld	s7,8(sp)
  }
}
    80001998:	60a6                	ld	ra,72(sp)
    8000199a:	6406                	ld	s0,64(sp)
    8000199c:	6161                	addi	sp,sp,80
    8000199e:	8082                	ret

00000000800019a0 <uvmcreate>:

// create an empty user page table.
// returns 0 if out of memory.
pagetable_t
uvmcreate()
{
    800019a0:	1101                	addi	sp,sp,-32
    800019a2:	ec06                	sd	ra,24(sp)
    800019a4:	e822                	sd	s0,16(sp)
    800019a6:	e426                	sd	s1,8(sp)
    800019a8:	1000                	addi	s0,sp,32
  pagetable_t pagetable;
  pagetable = (pagetable_t) kalloc();
    800019aa:	9deff0ef          	jal	80000b88 <kalloc>
    800019ae:	84aa                	mv	s1,a0
  if(pagetable == 0)
    800019b0:	c509                	beqz	a0,800019ba <uvmcreate+0x1a>
    return 0;
  memset(pagetable, 0, PGSIZE);
    800019b2:	6605                	lui	a2,0x1
    800019b4:	4581                	li	a1,0
    800019b6:	b76ff0ef          	jal	80000d2c <memset>
  return pagetable;
}
    800019ba:	8526                	mv	a0,s1
    800019bc:	60e2                	ld	ra,24(sp)
    800019be:	6442                	ld	s0,16(sp)
    800019c0:	64a2                	ld	s1,8(sp)
    800019c2:	6105                	addi	sp,sp,32
    800019c4:	8082                	ret

00000000800019c6 <uvmfirst>:
// Load the user initcode into address 0 of pagetable,
// for the very first process.
// sz must be less than a page.
void
uvmfirst(pagetable_t pagetable, uchar *src, uint sz)
{
    800019c6:	7179                	addi	sp,sp,-48
    800019c8:	f406                	sd	ra,40(sp)
    800019ca:	f022                	sd	s0,32(sp)
    800019cc:	ec26                	sd	s1,24(sp)
    800019ce:	e84a                	sd	s2,16(sp)
    800019d0:	e44e                	sd	s3,8(sp)
    800019d2:	e052                	sd	s4,0(sp)
    800019d4:	1800                	addi	s0,sp,48
  char *mem;

  if(sz >= PGSIZE)
    800019d6:	6785                	lui	a5,0x1
    800019d8:	04f67063          	bgeu	a2,a5,80001a18 <uvmfirst+0x52>
    800019dc:	8a2a                	mv	s4,a0
    800019de:	89ae                	mv	s3,a1
    800019e0:	84b2                	mv	s1,a2
    panic("uvmfirst: more than a page");
  mem = kalloc();
    800019e2:	9a6ff0ef          	jal	80000b88 <kalloc>
    800019e6:	892a                	mv	s2,a0
  memset(mem, 0, PGSIZE);
    800019e8:	6605                	lui	a2,0x1
    800019ea:	4581                	li	a1,0
    800019ec:	b40ff0ef          	jal	80000d2c <memset>
  mappages(pagetable, 0, PGSIZE, (uint64)mem, PTE_W|PTE_R|PTE_X|PTE_U);
    800019f0:	4779                	li	a4,30
    800019f2:	86ca                	mv	a3,s2
    800019f4:	6605                	lui	a2,0x1
    800019f6:	4581                	li	a1,0
    800019f8:	8552                	mv	a0,s4
    800019fa:	d45ff0ef          	jal	8000173e <mappages>
  memmove(mem, src, sz);
    800019fe:	8626                	mv	a2,s1
    80001a00:	85ce                	mv	a1,s3
    80001a02:	854a                	mv	a0,s2
    80001a04:	b84ff0ef          	jal	80000d88 <memmove>
}
    80001a08:	70a2                	ld	ra,40(sp)
    80001a0a:	7402                	ld	s0,32(sp)
    80001a0c:	64e2                	ld	s1,24(sp)
    80001a0e:	6942                	ld	s2,16(sp)
    80001a10:	69a2                	ld	s3,8(sp)
    80001a12:	6a02                	ld	s4,0(sp)
    80001a14:	6145                	addi	sp,sp,48
    80001a16:	8082                	ret
    panic("uvmfirst: more than a page");
    80001a18:	00006517          	auipc	a0,0x6
    80001a1c:	7b050513          	addi	a0,a0,1968 # 800081c8 <etext+0x1c8>
    80001a20:	dd9fe0ef          	jal	800007f8 <panic>

0000000080001a24 <uvmdealloc>:
// newsz.  oldsz and newsz need not be page-aligned, nor does newsz
// need to be less than oldsz.  oldsz can be larger than the actual
// process size.  Returns the new process size.
uint64
uvmdealloc(pagetable_t pagetable, uint64 oldsz, uint64 newsz)
{
    80001a24:	1101                	addi	sp,sp,-32
    80001a26:	ec06                	sd	ra,24(sp)
    80001a28:	e822                	sd	s0,16(sp)
    80001a2a:	e426                	sd	s1,8(sp)
    80001a2c:	1000                	addi	s0,sp,32
  if(newsz >= oldsz)
    return oldsz;
    80001a2e:	84ae                	mv	s1,a1
  if(newsz >= oldsz)
    80001a30:	00b67d63          	bgeu	a2,a1,80001a4a <uvmdealloc+0x26>
    80001a34:	84b2                	mv	s1,a2

  if(PGROUNDUP(newsz) < PGROUNDUP(oldsz)){
    80001a36:	6785                	lui	a5,0x1
    80001a38:	17fd                	addi	a5,a5,-1 # fff <_entry-0x7ffff001>
    80001a3a:	00f60733          	add	a4,a2,a5
    80001a3e:	76fd                	lui	a3,0xfffff
    80001a40:	8f75                	and	a4,a4,a3
    80001a42:	97ae                	add	a5,a5,a1
    80001a44:	8ff5                	and	a5,a5,a3
    80001a46:	00f76863          	bltu	a4,a5,80001a56 <uvmdealloc+0x32>
    int npages = (PGROUNDUP(oldsz) - PGROUNDUP(newsz)) / PGSIZE;
    uvmunmap(pagetable, PGROUNDUP(newsz), npages, 1);
  }

  return newsz;
}
    80001a4a:	8526                	mv	a0,s1
    80001a4c:	60e2                	ld	ra,24(sp)
    80001a4e:	6442                	ld	s0,16(sp)
    80001a50:	64a2                	ld	s1,8(sp)
    80001a52:	6105                	addi	sp,sp,32
    80001a54:	8082                	ret
    int npages = (PGROUNDUP(oldsz) - PGROUNDUP(newsz)) / PGSIZE;
    80001a56:	8f99                	sub	a5,a5,a4
    80001a58:	83b1                	srli	a5,a5,0xc
    uvmunmap(pagetable, PGROUNDUP(newsz), npages, 1);
    80001a5a:	4685                	li	a3,1
    80001a5c:	0007861b          	sext.w	a2,a5
    80001a60:	85ba                	mv	a1,a4
    80001a62:	e83ff0ef          	jal	800018e4 <uvmunmap>
    80001a66:	b7d5                	j	80001a4a <uvmdealloc+0x26>

0000000080001a68 <uvmalloc>:
  if(newsz < oldsz)
    80001a68:	08b66f63          	bltu	a2,a1,80001b06 <uvmalloc+0x9e>
{
    80001a6c:	7139                	addi	sp,sp,-64
    80001a6e:	fc06                	sd	ra,56(sp)
    80001a70:	f822                	sd	s0,48(sp)
    80001a72:	ec4e                	sd	s3,24(sp)
    80001a74:	e852                	sd	s4,16(sp)
    80001a76:	e456                	sd	s5,8(sp)
    80001a78:	0080                	addi	s0,sp,64
    80001a7a:	8aaa                	mv	s5,a0
    80001a7c:	8a32                	mv	s4,a2
  oldsz = PGROUNDUP(oldsz);
    80001a7e:	6785                	lui	a5,0x1
    80001a80:	17fd                	addi	a5,a5,-1 # fff <_entry-0x7ffff001>
    80001a82:	95be                	add	a1,a1,a5
    80001a84:	77fd                	lui	a5,0xfffff
    80001a86:	00f5f9b3          	and	s3,a1,a5
  for(a = oldsz; a < newsz; a += PGSIZE){
    80001a8a:	08c9f063          	bgeu	s3,a2,80001b0a <uvmalloc+0xa2>
    80001a8e:	f426                	sd	s1,40(sp)
    80001a90:	f04a                	sd	s2,32(sp)
    80001a92:	e05a                	sd	s6,0(sp)
    80001a94:	894e                	mv	s2,s3
    if(mappages(pagetable, a, PGSIZE, (uint64)mem, PTE_R|PTE_U|xperm) != 0){
    80001a96:	0126eb13          	ori	s6,a3,18
    mem = kalloc();
    80001a9a:	8eeff0ef          	jal	80000b88 <kalloc>
    80001a9e:	84aa                	mv	s1,a0
    if(mem == 0){
    80001aa0:	c515                	beqz	a0,80001acc <uvmalloc+0x64>
    memset(mem, 0, PGSIZE);
    80001aa2:	6605                	lui	a2,0x1
    80001aa4:	4581                	li	a1,0
    80001aa6:	a86ff0ef          	jal	80000d2c <memset>
    if(mappages(pagetable, a, PGSIZE, (uint64)mem, PTE_R|PTE_U|xperm) != 0){
    80001aaa:	875a                	mv	a4,s6
    80001aac:	86a6                	mv	a3,s1
    80001aae:	6605                	lui	a2,0x1
    80001ab0:	85ca                	mv	a1,s2
    80001ab2:	8556                	mv	a0,s5
    80001ab4:	c8bff0ef          	jal	8000173e <mappages>
    80001ab8:	e915                	bnez	a0,80001aec <uvmalloc+0x84>
  for(a = oldsz; a < newsz; a += PGSIZE){
    80001aba:	6785                	lui	a5,0x1
    80001abc:	993e                	add	s2,s2,a5
    80001abe:	fd496ee3          	bltu	s2,s4,80001a9a <uvmalloc+0x32>
  return newsz;
    80001ac2:	8552                	mv	a0,s4
    80001ac4:	74a2                	ld	s1,40(sp)
    80001ac6:	7902                	ld	s2,32(sp)
    80001ac8:	6b02                	ld	s6,0(sp)
    80001aca:	a811                	j	80001ade <uvmalloc+0x76>
      uvmdealloc(pagetable, a, oldsz);
    80001acc:	864e                	mv	a2,s3
    80001ace:	85ca                	mv	a1,s2
    80001ad0:	8556                	mv	a0,s5
    80001ad2:	f53ff0ef          	jal	80001a24 <uvmdealloc>
      return 0;
    80001ad6:	4501                	li	a0,0
    80001ad8:	74a2                	ld	s1,40(sp)
    80001ada:	7902                	ld	s2,32(sp)
    80001adc:	6b02                	ld	s6,0(sp)
}
    80001ade:	70e2                	ld	ra,56(sp)
    80001ae0:	7442                	ld	s0,48(sp)
    80001ae2:	69e2                	ld	s3,24(sp)
    80001ae4:	6a42                	ld	s4,16(sp)
    80001ae6:	6aa2                	ld	s5,8(sp)
    80001ae8:	6121                	addi	sp,sp,64
    80001aea:	8082                	ret
      kfree(mem);
    80001aec:	8526                	mv	a0,s1
    80001aee:	fb9fe0ef          	jal	80000aa6 <kfree>
      uvmdealloc(pagetable, a, oldsz);
    80001af2:	864e                	mv	a2,s3
    80001af4:	85ca                	mv	a1,s2
    80001af6:	8556                	mv	a0,s5
    80001af8:	f2dff0ef          	jal	80001a24 <uvmdealloc>
      return 0;
    80001afc:	4501                	li	a0,0
    80001afe:	74a2                	ld	s1,40(sp)
    80001b00:	7902                	ld	s2,32(sp)
    80001b02:	6b02                	ld	s6,0(sp)
    80001b04:	bfe9                	j	80001ade <uvmalloc+0x76>
    return oldsz;
    80001b06:	852e                	mv	a0,a1
}
    80001b08:	8082                	ret
  return newsz;
    80001b0a:	8532                	mv	a0,a2
    80001b0c:	bfc9                	j	80001ade <uvmalloc+0x76>

0000000080001b0e <freewalk>:

// Recursively free page-table pages.
// All leaf mappings must already have been removed.
void
freewalk(pagetable_t pagetable)
{
    80001b0e:	7179                	addi	sp,sp,-48
    80001b10:	f406                	sd	ra,40(sp)
    80001b12:	f022                	sd	s0,32(sp)
    80001b14:	ec26                	sd	s1,24(sp)
    80001b16:	e84a                	sd	s2,16(sp)
    80001b18:	e44e                	sd	s3,8(sp)
    80001b1a:	e052                	sd	s4,0(sp)
    80001b1c:	1800                	addi	s0,sp,48
    80001b1e:	8a2a                	mv	s4,a0
  // there are 2^9 = 512 PTEs in a page table.
  for(int i = 0; i < 512; i++){
    80001b20:	84aa                	mv	s1,a0
    80001b22:	6905                	lui	s2,0x1
    80001b24:	992a                	add	s2,s2,a0
    pte_t pte = pagetable[i];
    if((pte & PTE_V) && (pte & (PTE_R|PTE_W|PTE_X)) == 0){
    80001b26:	4985                	li	s3,1
    80001b28:	a819                	j	80001b3e <freewalk+0x30>
      // this PTE points to a lower-level page table.
      uint64 child = PTE2PA(pte);
    80001b2a:	83a9                	srli	a5,a5,0xa
      freewalk((pagetable_t)child);
    80001b2c:	00c79513          	slli	a0,a5,0xc
    80001b30:	fdfff0ef          	jal	80001b0e <freewalk>
      pagetable[i] = 0;
    80001b34:	0004b023          	sd	zero,0(s1)
  for(int i = 0; i < 512; i++){
    80001b38:	04a1                	addi	s1,s1,8
    80001b3a:	01248f63          	beq	s1,s2,80001b58 <freewalk+0x4a>
    pte_t pte = pagetable[i];
    80001b3e:	609c                	ld	a5,0(s1)
    if((pte & PTE_V) && (pte & (PTE_R|PTE_W|PTE_X)) == 0){
    80001b40:	00f7f713          	andi	a4,a5,15
    80001b44:	ff3703e3          	beq	a4,s3,80001b2a <freewalk+0x1c>
    } else if(pte & PTE_V){
    80001b48:	8b85                	andi	a5,a5,1
    80001b4a:	d7fd                	beqz	a5,80001b38 <freewalk+0x2a>
      panic("freewalk: leaf");
    80001b4c:	00006517          	auipc	a0,0x6
    80001b50:	69c50513          	addi	a0,a0,1692 # 800081e8 <etext+0x1e8>
    80001b54:	ca5fe0ef          	jal	800007f8 <panic>
    }
  }
  kfree((void*)pagetable);
    80001b58:	8552                	mv	a0,s4
    80001b5a:	f4dfe0ef          	jal	80000aa6 <kfree>
}
    80001b5e:	70a2                	ld	ra,40(sp)
    80001b60:	7402                	ld	s0,32(sp)
    80001b62:	64e2                	ld	s1,24(sp)
    80001b64:	6942                	ld	s2,16(sp)
    80001b66:	69a2                	ld	s3,8(sp)
    80001b68:	6a02                	ld	s4,0(sp)
    80001b6a:	6145                	addi	sp,sp,48
    80001b6c:	8082                	ret

0000000080001b6e <uvmfree>:

// Free user memory pages,
// then free page-table pages.
void
uvmfree(pagetable_t pagetable, uint64 sz)
{
    80001b6e:	1101                	addi	sp,sp,-32
    80001b70:	ec06                	sd	ra,24(sp)
    80001b72:	e822                	sd	s0,16(sp)
    80001b74:	e426                	sd	s1,8(sp)
    80001b76:	1000                	addi	s0,sp,32
    80001b78:	84aa                	mv	s1,a0
  if(sz > 0)
    80001b7a:	e989                	bnez	a1,80001b8c <uvmfree+0x1e>
    uvmunmap(pagetable, 0, PGROUNDUP(sz)/PGSIZE, 1);
  freewalk(pagetable);
    80001b7c:	8526                	mv	a0,s1
    80001b7e:	f91ff0ef          	jal	80001b0e <freewalk>
}
    80001b82:	60e2                	ld	ra,24(sp)
    80001b84:	6442                	ld	s0,16(sp)
    80001b86:	64a2                	ld	s1,8(sp)
    80001b88:	6105                	addi	sp,sp,32
    80001b8a:	8082                	ret
    uvmunmap(pagetable, 0, PGROUNDUP(sz)/PGSIZE, 1);
    80001b8c:	6785                	lui	a5,0x1
    80001b8e:	17fd                	addi	a5,a5,-1 # fff <_entry-0x7ffff001>
    80001b90:	95be                	add	a1,a1,a5
    80001b92:	4685                	li	a3,1
    80001b94:	00c5d613          	srli	a2,a1,0xc
    80001b98:	4581                	li	a1,0
    80001b9a:	d4bff0ef          	jal	800018e4 <uvmunmap>
    80001b9e:	bff9                	j	80001b7c <uvmfree+0xe>

0000000080001ba0 <uvmcopy>:
  pte_t *pte;
  uint64 pa, i;
  uint flags;
  char *mem;

  for(i = 0; i < sz; i += PGSIZE){
    80001ba0:	c65d                	beqz	a2,80001c4e <uvmcopy+0xae>
{
    80001ba2:	715d                	addi	sp,sp,-80
    80001ba4:	e486                	sd	ra,72(sp)
    80001ba6:	e0a2                	sd	s0,64(sp)
    80001ba8:	fc26                	sd	s1,56(sp)
    80001baa:	f84a                	sd	s2,48(sp)
    80001bac:	f44e                	sd	s3,40(sp)
    80001bae:	f052                	sd	s4,32(sp)
    80001bb0:	ec56                	sd	s5,24(sp)
    80001bb2:	e85a                	sd	s6,16(sp)
    80001bb4:	e45e                	sd	s7,8(sp)
    80001bb6:	0880                	addi	s0,sp,80
    80001bb8:	8b2a                	mv	s6,a0
    80001bba:	8aae                	mv	s5,a1
    80001bbc:	8a32                	mv	s4,a2
  for(i = 0; i < sz; i += PGSIZE){
    80001bbe:	4981                	li	s3,0
    if((pte = walk(old, i, 0)) == 0)
    80001bc0:	4601                	li	a2,0
    80001bc2:	85ce                	mv	a1,s3
    80001bc4:	855a                	mv	a0,s6
    80001bc6:	aa1ff0ef          	jal	80001666 <walk>
    80001bca:	c121                	beqz	a0,80001c0a <uvmcopy+0x6a>
      panic("uvmcopy: pte should exist");
    if((*pte & PTE_V) == 0)
    80001bcc:	6118                	ld	a4,0(a0)
    80001bce:	00177793          	andi	a5,a4,1
    80001bd2:	c3b1                	beqz	a5,80001c16 <uvmcopy+0x76>
      panic("uvmcopy: page not present");
    pa = PTE2PA(*pte);
    80001bd4:	00a75593          	srli	a1,a4,0xa
    80001bd8:	00c59b93          	slli	s7,a1,0xc
    flags = PTE_FLAGS(*pte);
    80001bdc:	3ff77493          	andi	s1,a4,1023
    if((mem = kalloc()) == 0)
    80001be0:	fa9fe0ef          	jal	80000b88 <kalloc>
    80001be4:	892a                	mv	s2,a0
    80001be6:	c129                	beqz	a0,80001c28 <uvmcopy+0x88>
      goto err;
    memmove(mem, (char*)pa, PGSIZE);
    80001be8:	6605                	lui	a2,0x1
    80001bea:	85de                	mv	a1,s7
    80001bec:	99cff0ef          	jal	80000d88 <memmove>
    if(mappages(new, i, PGSIZE, (uint64)mem, flags) != 0){
    80001bf0:	8726                	mv	a4,s1
    80001bf2:	86ca                	mv	a3,s2
    80001bf4:	6605                	lui	a2,0x1
    80001bf6:	85ce                	mv	a1,s3
    80001bf8:	8556                	mv	a0,s5
    80001bfa:	b45ff0ef          	jal	8000173e <mappages>
    80001bfe:	e115                	bnez	a0,80001c22 <uvmcopy+0x82>
  for(i = 0; i < sz; i += PGSIZE){
    80001c00:	6785                	lui	a5,0x1
    80001c02:	99be                	add	s3,s3,a5
    80001c04:	fb49eee3          	bltu	s3,s4,80001bc0 <uvmcopy+0x20>
    80001c08:	a805                	j	80001c38 <uvmcopy+0x98>
      panic("uvmcopy: pte should exist");
    80001c0a:	00006517          	auipc	a0,0x6
    80001c0e:	5ee50513          	addi	a0,a0,1518 # 800081f8 <etext+0x1f8>
    80001c12:	be7fe0ef          	jal	800007f8 <panic>
      panic("uvmcopy: page not present");
    80001c16:	00006517          	auipc	a0,0x6
    80001c1a:	60250513          	addi	a0,a0,1538 # 80008218 <etext+0x218>
    80001c1e:	bdbfe0ef          	jal	800007f8 <panic>
      kfree(mem);
    80001c22:	854a                	mv	a0,s2
    80001c24:	e83fe0ef          	jal	80000aa6 <kfree>
    }
  }
  return 0;

 err:
  uvmunmap(new, 0, i / PGSIZE, 1);
    80001c28:	4685                	li	a3,1
    80001c2a:	00c9d613          	srli	a2,s3,0xc
    80001c2e:	4581                	li	a1,0
    80001c30:	8556                	mv	a0,s5
    80001c32:	cb3ff0ef          	jal	800018e4 <uvmunmap>
  return -1;
    80001c36:	557d                	li	a0,-1
}
    80001c38:	60a6                	ld	ra,72(sp)
    80001c3a:	6406                	ld	s0,64(sp)
    80001c3c:	74e2                	ld	s1,56(sp)
    80001c3e:	7942                	ld	s2,48(sp)
    80001c40:	79a2                	ld	s3,40(sp)
    80001c42:	7a02                	ld	s4,32(sp)
    80001c44:	6ae2                	ld	s5,24(sp)
    80001c46:	6b42                	ld	s6,16(sp)
    80001c48:	6ba2                	ld	s7,8(sp)
    80001c4a:	6161                	addi	sp,sp,80
    80001c4c:	8082                	ret
  return 0;
    80001c4e:	4501                	li	a0,0
}
    80001c50:	8082                	ret

0000000080001c52 <uvmclear>:

// mark a PTE invalid for user access.
// used by exec for the user stack guard page.
void
uvmclear(pagetable_t pagetable, uint64 va)
{
    80001c52:	1141                	addi	sp,sp,-16
    80001c54:	e406                	sd	ra,8(sp)
    80001c56:	e022                	sd	s0,0(sp)
    80001c58:	0800                	addi	s0,sp,16
  pte_t *pte;
  
  pte = walk(pagetable, va, 0);
    80001c5a:	4601                	li	a2,0
    80001c5c:	a0bff0ef          	jal	80001666 <walk>
  if(pte == 0)
    80001c60:	c901                	beqz	a0,80001c70 <uvmclear+0x1e>
    panic("uvmclear");
  *pte &= ~PTE_U;
    80001c62:	611c                	ld	a5,0(a0)
    80001c64:	9bbd                	andi	a5,a5,-17
    80001c66:	e11c                	sd	a5,0(a0)
}
    80001c68:	60a2                	ld	ra,8(sp)
    80001c6a:	6402                	ld	s0,0(sp)
    80001c6c:	0141                	addi	sp,sp,16
    80001c6e:	8082                	ret
    panic("uvmclear");
    80001c70:	00006517          	auipc	a0,0x6
    80001c74:	5c850513          	addi	a0,a0,1480 # 80008238 <etext+0x238>
    80001c78:	b81fe0ef          	jal	800007f8 <panic>

0000000080001c7c <copyout>:
copyout(pagetable_t pagetable, uint64 dstva, char *src, uint64 len)
{
  uint64 n, va0, pa0;
  pte_t *pte;

  while(len > 0){
    80001c7c:	cad1                	beqz	a3,80001d10 <copyout+0x94>
{
    80001c7e:	711d                	addi	sp,sp,-96
    80001c80:	ec86                	sd	ra,88(sp)
    80001c82:	e8a2                	sd	s0,80(sp)
    80001c84:	e4a6                	sd	s1,72(sp)
    80001c86:	fc4e                	sd	s3,56(sp)
    80001c88:	f456                	sd	s5,40(sp)
    80001c8a:	f05a                	sd	s6,32(sp)
    80001c8c:	ec5e                	sd	s7,24(sp)
    80001c8e:	1080                	addi	s0,sp,96
    80001c90:	8baa                	mv	s7,a0
    80001c92:	8aae                	mv	s5,a1
    80001c94:	8b32                	mv	s6,a2
    80001c96:	89b6                	mv	s3,a3
    va0 = PGROUNDDOWN(dstva);
    80001c98:	74fd                	lui	s1,0xfffff
    80001c9a:	8ced                	and	s1,s1,a1
    if(va0 >= MAXVA)
    80001c9c:	57fd                	li	a5,-1
    80001c9e:	83e9                	srli	a5,a5,0x1a
    80001ca0:	0697ea63          	bltu	a5,s1,80001d14 <copyout+0x98>
    80001ca4:	e0ca                	sd	s2,64(sp)
    80001ca6:	f852                	sd	s4,48(sp)
    80001ca8:	e862                	sd	s8,16(sp)
    80001caa:	e466                	sd	s9,8(sp)
    80001cac:	e06a                	sd	s10,0(sp)
      return -1;
    pte = walk(pagetable, va0, 0);
    if(pte == 0 || (*pte & PTE_V) == 0 || (*pte & PTE_U) == 0 ||
    80001cae:	4cd5                	li	s9,21
    80001cb0:	6d05                	lui	s10,0x1
    if(va0 >= MAXVA)
    80001cb2:	8c3e                	mv	s8,a5
    80001cb4:	a025                	j	80001cdc <copyout+0x60>
       (*pte & PTE_W) == 0)
      return -1;
    pa0 = PTE2PA(*pte);
    80001cb6:	83a9                	srli	a5,a5,0xa
    80001cb8:	07b2                	slli	a5,a5,0xc
    n = PGSIZE - (dstva - va0);
    if(n > len)
      n = len;
    memmove((void *)(pa0 + (dstva - va0)), src, n);
    80001cba:	409a8533          	sub	a0,s5,s1
    80001cbe:	0009061b          	sext.w	a2,s2
    80001cc2:	85da                	mv	a1,s6
    80001cc4:	953e                	add	a0,a0,a5
    80001cc6:	8c2ff0ef          	jal	80000d88 <memmove>

    len -= n;
    80001cca:	412989b3          	sub	s3,s3,s2
    src += n;
    80001cce:	9b4a                	add	s6,s6,s2
  while(len > 0){
    80001cd0:	02098963          	beqz	s3,80001d02 <copyout+0x86>
    if(va0 >= MAXVA)
    80001cd4:	054c6263          	bltu	s8,s4,80001d18 <copyout+0x9c>
    80001cd8:	84d2                	mv	s1,s4
    80001cda:	8ad2                	mv	s5,s4
    pte = walk(pagetable, va0, 0);
    80001cdc:	4601                	li	a2,0
    80001cde:	85a6                	mv	a1,s1
    80001ce0:	855e                	mv	a0,s7
    80001ce2:	985ff0ef          	jal	80001666 <walk>
    if(pte == 0 || (*pte & PTE_V) == 0 || (*pte & PTE_U) == 0 ||
    80001ce6:	c121                	beqz	a0,80001d26 <copyout+0xaa>
    80001ce8:	611c                	ld	a5,0(a0)
    80001cea:	0157f713          	andi	a4,a5,21
    80001cee:	05971b63          	bne	a4,s9,80001d44 <copyout+0xc8>
    n = PGSIZE - (dstva - va0);
    80001cf2:	01a48a33          	add	s4,s1,s10
    80001cf6:	415a0933          	sub	s2,s4,s5
    if(n > len)
    80001cfa:	fb29fee3          	bgeu	s3,s2,80001cb6 <copyout+0x3a>
    80001cfe:	894e                	mv	s2,s3
    80001d00:	bf5d                	j	80001cb6 <copyout+0x3a>
    dstva = va0 + PGSIZE;
  }
  return 0;
    80001d02:	4501                	li	a0,0
    80001d04:	6906                	ld	s2,64(sp)
    80001d06:	7a42                	ld	s4,48(sp)
    80001d08:	6c42                	ld	s8,16(sp)
    80001d0a:	6ca2                	ld	s9,8(sp)
    80001d0c:	6d02                	ld	s10,0(sp)
    80001d0e:	a015                	j	80001d32 <copyout+0xb6>
    80001d10:	4501                	li	a0,0
}
    80001d12:	8082                	ret
      return -1;
    80001d14:	557d                	li	a0,-1
    80001d16:	a831                	j	80001d32 <copyout+0xb6>
    80001d18:	557d                	li	a0,-1
    80001d1a:	6906                	ld	s2,64(sp)
    80001d1c:	7a42                	ld	s4,48(sp)
    80001d1e:	6c42                	ld	s8,16(sp)
    80001d20:	6ca2                	ld	s9,8(sp)
    80001d22:	6d02                	ld	s10,0(sp)
    80001d24:	a039                	j	80001d32 <copyout+0xb6>
      return -1;
    80001d26:	557d                	li	a0,-1
    80001d28:	6906                	ld	s2,64(sp)
    80001d2a:	7a42                	ld	s4,48(sp)
    80001d2c:	6c42                	ld	s8,16(sp)
    80001d2e:	6ca2                	ld	s9,8(sp)
    80001d30:	6d02                	ld	s10,0(sp)
}
    80001d32:	60e6                	ld	ra,88(sp)
    80001d34:	6446                	ld	s0,80(sp)
    80001d36:	64a6                	ld	s1,72(sp)
    80001d38:	79e2                	ld	s3,56(sp)
    80001d3a:	7aa2                	ld	s5,40(sp)
    80001d3c:	7b02                	ld	s6,32(sp)
    80001d3e:	6be2                	ld	s7,24(sp)
    80001d40:	6125                	addi	sp,sp,96
    80001d42:	8082                	ret
      return -1;
    80001d44:	557d                	li	a0,-1
    80001d46:	6906                	ld	s2,64(sp)
    80001d48:	7a42                	ld	s4,48(sp)
    80001d4a:	6c42                	ld	s8,16(sp)
    80001d4c:	6ca2                	ld	s9,8(sp)
    80001d4e:	6d02                	ld	s10,0(sp)
    80001d50:	b7cd                	j	80001d32 <copyout+0xb6>

0000000080001d52 <copyin>:
int
copyin(pagetable_t pagetable, char *dst, uint64 srcva, uint64 len)
{
  uint64 n, va0, pa0;

  while(len > 0){
    80001d52:	c6a5                	beqz	a3,80001dba <copyin+0x68>
{
    80001d54:	715d                	addi	sp,sp,-80
    80001d56:	e486                	sd	ra,72(sp)
    80001d58:	e0a2                	sd	s0,64(sp)
    80001d5a:	fc26                	sd	s1,56(sp)
    80001d5c:	f84a                	sd	s2,48(sp)
    80001d5e:	f44e                	sd	s3,40(sp)
    80001d60:	f052                	sd	s4,32(sp)
    80001d62:	ec56                	sd	s5,24(sp)
    80001d64:	e85a                	sd	s6,16(sp)
    80001d66:	e45e                	sd	s7,8(sp)
    80001d68:	e062                	sd	s8,0(sp)
    80001d6a:	0880                	addi	s0,sp,80
    80001d6c:	8b2a                	mv	s6,a0
    80001d6e:	8a2e                	mv	s4,a1
    80001d70:	8c32                	mv	s8,a2
    80001d72:	89b6                	mv	s3,a3
    va0 = PGROUNDDOWN(srcva);
    80001d74:	7bfd                	lui	s7,0xfffff
    pa0 = walkaddr(pagetable, va0);
    if(pa0 == 0)
      return -1;
    n = PGSIZE - (srcva - va0);
    80001d76:	6a85                	lui	s5,0x1
    80001d78:	a00d                	j	80001d9a <copyin+0x48>
    if(n > len)
      n = len;
    memmove(dst, (void *)(pa0 + (srcva - va0)), n);
    80001d7a:	018505b3          	add	a1,a0,s8
    80001d7e:	0004861b          	sext.w	a2,s1
    80001d82:	412585b3          	sub	a1,a1,s2
    80001d86:	8552                	mv	a0,s4
    80001d88:	800ff0ef          	jal	80000d88 <memmove>

    len -= n;
    80001d8c:	409989b3          	sub	s3,s3,s1
    dst += n;
    80001d90:	9a26                	add	s4,s4,s1
    srcva = va0 + PGSIZE;
    80001d92:	01590c33          	add	s8,s2,s5
  while(len > 0){
    80001d96:	02098063          	beqz	s3,80001db6 <copyin+0x64>
    va0 = PGROUNDDOWN(srcva);
    80001d9a:	017c7933          	and	s2,s8,s7
    pa0 = walkaddr(pagetable, va0);
    80001d9e:	85ca                	mv	a1,s2
    80001da0:	855a                	mv	a0,s6
    80001da2:	95fff0ef          	jal	80001700 <walkaddr>
    if(pa0 == 0)
    80001da6:	cd01                	beqz	a0,80001dbe <copyin+0x6c>
    n = PGSIZE - (srcva - va0);
    80001da8:	418904b3          	sub	s1,s2,s8
    80001dac:	94d6                	add	s1,s1,s5
    if(n > len)
    80001dae:	fc99f6e3          	bgeu	s3,s1,80001d7a <copyin+0x28>
    80001db2:	84ce                	mv	s1,s3
    80001db4:	b7d9                	j	80001d7a <copyin+0x28>
  }
  return 0;
    80001db6:	4501                	li	a0,0
    80001db8:	a021                	j	80001dc0 <copyin+0x6e>
    80001dba:	4501                	li	a0,0
}
    80001dbc:	8082                	ret
      return -1;
    80001dbe:	557d                	li	a0,-1
}
    80001dc0:	60a6                	ld	ra,72(sp)
    80001dc2:	6406                	ld	s0,64(sp)
    80001dc4:	74e2                	ld	s1,56(sp)
    80001dc6:	7942                	ld	s2,48(sp)
    80001dc8:	79a2                	ld	s3,40(sp)
    80001dca:	7a02                	ld	s4,32(sp)
    80001dcc:	6ae2                	ld	s5,24(sp)
    80001dce:	6b42                	ld	s6,16(sp)
    80001dd0:	6ba2                	ld	s7,8(sp)
    80001dd2:	6c02                	ld	s8,0(sp)
    80001dd4:	6161                	addi	sp,sp,80
    80001dd6:	8082                	ret

0000000080001dd8 <copyinstr>:
copyinstr(pagetable_t pagetable, char *dst, uint64 srcva, uint64 max)
{
  uint64 n, va0, pa0;
  int got_null = 0;

  while(got_null == 0 && max > 0){
    80001dd8:	c6dd                	beqz	a3,80001e86 <copyinstr+0xae>
{
    80001dda:	715d                	addi	sp,sp,-80
    80001ddc:	e486                	sd	ra,72(sp)
    80001dde:	e0a2                	sd	s0,64(sp)
    80001de0:	fc26                	sd	s1,56(sp)
    80001de2:	f84a                	sd	s2,48(sp)
    80001de4:	f44e                	sd	s3,40(sp)
    80001de6:	f052                	sd	s4,32(sp)
    80001de8:	ec56                	sd	s5,24(sp)
    80001dea:	e85a                	sd	s6,16(sp)
    80001dec:	e45e                	sd	s7,8(sp)
    80001dee:	0880                	addi	s0,sp,80
    80001df0:	8a2a                	mv	s4,a0
    80001df2:	8b2e                	mv	s6,a1
    80001df4:	8bb2                	mv	s7,a2
    80001df6:	8936                	mv	s2,a3
    va0 = PGROUNDDOWN(srcva);
    80001df8:	7afd                	lui	s5,0xfffff
    pa0 = walkaddr(pagetable, va0);
    if(pa0 == 0)
      return -1;
    n = PGSIZE - (srcva - va0);
    80001dfa:	6985                	lui	s3,0x1
    80001dfc:	a825                	j	80001e34 <copyinstr+0x5c>
      n = max;

    char *p = (char *) (pa0 + (srcva - va0));
    while(n > 0){
      if(*p == '\0'){
        *dst = '\0';
    80001dfe:	00078023          	sb	zero,0(a5) # 1000 <_entry-0x7ffff000>
    80001e02:	4785                	li	a5,1
      dst++;
    }

    srcva = va0 + PGSIZE;
  }
  if(got_null){
    80001e04:	37fd                	addiw	a5,a5,-1
    80001e06:	0007851b          	sext.w	a0,a5
    return 0;
  } else {
    return -1;
  }
}
    80001e0a:	60a6                	ld	ra,72(sp)
    80001e0c:	6406                	ld	s0,64(sp)
    80001e0e:	74e2                	ld	s1,56(sp)
    80001e10:	7942                	ld	s2,48(sp)
    80001e12:	79a2                	ld	s3,40(sp)
    80001e14:	7a02                	ld	s4,32(sp)
    80001e16:	6ae2                	ld	s5,24(sp)
    80001e18:	6b42                	ld	s6,16(sp)
    80001e1a:	6ba2                	ld	s7,8(sp)
    80001e1c:	6161                	addi	sp,sp,80
    80001e1e:	8082                	ret
    80001e20:	fff90713          	addi	a4,s2,-1 # fff <_entry-0x7ffff001>
    80001e24:	9742                	add	a4,a4,a6
      --max;
    80001e26:	40b70933          	sub	s2,a4,a1
    srcva = va0 + PGSIZE;
    80001e2a:	01348bb3          	add	s7,s1,s3
  while(got_null == 0 && max > 0){
    80001e2e:	04e58463          	beq	a1,a4,80001e76 <copyinstr+0x9e>
{
    80001e32:	8b3e                	mv	s6,a5
    va0 = PGROUNDDOWN(srcva);
    80001e34:	015bf4b3          	and	s1,s7,s5
    pa0 = walkaddr(pagetable, va0);
    80001e38:	85a6                	mv	a1,s1
    80001e3a:	8552                	mv	a0,s4
    80001e3c:	8c5ff0ef          	jal	80001700 <walkaddr>
    if(pa0 == 0)
    80001e40:	cd0d                	beqz	a0,80001e7a <copyinstr+0xa2>
    n = PGSIZE - (srcva - va0);
    80001e42:	417486b3          	sub	a3,s1,s7
    80001e46:	96ce                	add	a3,a3,s3
    if(n > max)
    80001e48:	00d97363          	bgeu	s2,a3,80001e4e <copyinstr+0x76>
    80001e4c:	86ca                	mv	a3,s2
    char *p = (char *) (pa0 + (srcva - va0));
    80001e4e:	955e                	add	a0,a0,s7
    80001e50:	8d05                	sub	a0,a0,s1
    while(n > 0){
    80001e52:	c695                	beqz	a3,80001e7e <copyinstr+0xa6>
    80001e54:	87da                	mv	a5,s6
    80001e56:	885a                	mv	a6,s6
      if(*p == '\0'){
    80001e58:	41650633          	sub	a2,a0,s6
    while(n > 0){
    80001e5c:	96da                	add	a3,a3,s6
    80001e5e:	85be                	mv	a1,a5
      if(*p == '\0'){
    80001e60:	00f60733          	add	a4,a2,a5
    80001e64:	00074703          	lbu	a4,0(a4)
    80001e68:	db59                	beqz	a4,80001dfe <copyinstr+0x26>
        *dst = *p;
    80001e6a:	00e78023          	sb	a4,0(a5)
      dst++;
    80001e6e:	0785                	addi	a5,a5,1
    while(n > 0){
    80001e70:	fed797e3          	bne	a5,a3,80001e5e <copyinstr+0x86>
    80001e74:	b775                	j	80001e20 <copyinstr+0x48>
    80001e76:	4781                	li	a5,0
    80001e78:	b771                	j	80001e04 <copyinstr+0x2c>
      return -1;
    80001e7a:	557d                	li	a0,-1
    80001e7c:	b779                	j	80001e0a <copyinstr+0x32>
    srcva = va0 + PGSIZE;
    80001e7e:	6b85                	lui	s7,0x1
    80001e80:	9ba6                	add	s7,s7,s1
    80001e82:	87da                	mv	a5,s6
    80001e84:	b77d                	j	80001e32 <copyinstr+0x5a>
  int got_null = 0;
    80001e86:	4781                	li	a5,0
  if(got_null){
    80001e88:	37fd                	addiw	a5,a5,-1
    80001e8a:	0007851b          	sext.w	a0,a5
}
    80001e8e:	8082                	ret

0000000080001e90 <proc_mapstacks>:
// Allocate a page for each process's kernel stack.
// Map it high in memory, followed by an invalid
// guard page.
void
proc_mapstacks(pagetable_t kpgtbl)
{
    80001e90:	7139                	addi	sp,sp,-64
    80001e92:	fc06                	sd	ra,56(sp)
    80001e94:	f822                	sd	s0,48(sp)
    80001e96:	f426                	sd	s1,40(sp)
    80001e98:	f04a                	sd	s2,32(sp)
    80001e9a:	ec4e                	sd	s3,24(sp)
    80001e9c:	e852                	sd	s4,16(sp)
    80001e9e:	e456                	sd	s5,8(sp)
    80001ea0:	e05a                	sd	s6,0(sp)
    80001ea2:	0080                	addi	s0,sp,64
    80001ea4:	8a2a                	mv	s4,a0
  struct proc *p;
  
  for(p = proc; p < &proc[NPROC]; p++) {
    80001ea6:	001a2497          	auipc	s1,0x1a2
    80001eaa:	64248493          	addi	s1,s1,1602 # 801a44e8 <proc>
    char *pa = kalloc();
    if(pa == 0)
      panic("kalloc");
    uint64 va = KSTACK((int) (p - proc));
    80001eae:	8b26                	mv	s6,s1
    80001eb0:	fcf3d937          	lui	s2,0xfcf3d
    80001eb4:	f3d90913          	addi	s2,s2,-195 # fffffffffcf3cf3d <end+0xffffffff7cd82e5d>
    80001eb8:	0932                	slli	s2,s2,0xc
    80001eba:	f3d90913          	addi	s2,s2,-195
    80001ebe:	0932                	slli	s2,s2,0xc
    80001ec0:	f3d90913          	addi	s2,s2,-195
    80001ec4:	0932                	slli	s2,s2,0xc
    80001ec6:	f3d90913          	addi	s2,s2,-195
    80001eca:	040009b7          	lui	s3,0x4000
    80001ece:	19fd                	addi	s3,s3,-1 # 3ffffff <_entry-0x7c000001>
    80001ed0:	09b2                	slli	s3,s3,0xc
  for(p = proc; p < &proc[NPROC]; p++) {
    80001ed2:	001ada97          	auipc	s5,0x1ad
    80001ed6:	e16a8a93          	addi	s5,s5,-490 # 801aece8 <proc_lock>
    char *pa = kalloc();
    80001eda:	caffe0ef          	jal	80000b88 <kalloc>
    80001ede:	862a                	mv	a2,a0
    if(pa == 0)
    80001ee0:	cd15                	beqz	a0,80001f1c <proc_mapstacks+0x8c>
    uint64 va = KSTACK((int) (p - proc));
    80001ee2:	416485b3          	sub	a1,s1,s6
    80001ee6:	8595                	srai	a1,a1,0x5
    80001ee8:	032585b3          	mul	a1,a1,s2
    80001eec:	2585                	addiw	a1,a1,1
    80001eee:	00d5959b          	slliw	a1,a1,0xd
    kvmmap(kpgtbl, va, (uint64)pa, PGSIZE, PTE_R | PTE_W);
    80001ef2:	4719                	li	a4,6
    80001ef4:	6685                	lui	a3,0x1
    80001ef6:	40b985b3          	sub	a1,s3,a1
    80001efa:	8552                	mv	a0,s4
    80001efc:	8f3ff0ef          	jal	800017ee <kvmmap>
  for(p = proc; p < &proc[NPROC]; p++) {
    80001f00:	2a048493          	addi	s1,s1,672
    80001f04:	fd549be3          	bne	s1,s5,80001eda <proc_mapstacks+0x4a>
  }
}
    80001f08:	70e2                	ld	ra,56(sp)
    80001f0a:	7442                	ld	s0,48(sp)
    80001f0c:	74a2                	ld	s1,40(sp)
    80001f0e:	7902                	ld	s2,32(sp)
    80001f10:	69e2                	ld	s3,24(sp)
    80001f12:	6a42                	ld	s4,16(sp)
    80001f14:	6aa2                	ld	s5,8(sp)
    80001f16:	6b02                	ld	s6,0(sp)
    80001f18:	6121                	addi	sp,sp,64
    80001f1a:	8082                	ret
      panic("kalloc");
    80001f1c:	00006517          	auipc	a0,0x6
    80001f20:	32c50513          	addi	a0,a0,812 # 80008248 <etext+0x248>
    80001f24:	8d5fe0ef          	jal	800007f8 <panic>

0000000080001f28 <procinit>:

// initialize the proc table.
void
procinit(void)
{
    80001f28:	715d                	addi	sp,sp,-80
    80001f2a:	e486                	sd	ra,72(sp)
    80001f2c:	e0a2                	sd	s0,64(sp)
    80001f2e:	fc26                	sd	s1,56(sp)
    80001f30:	f84a                	sd	s2,48(sp)
    80001f32:	f44e                	sd	s3,40(sp)
    80001f34:	f052                	sd	s4,32(sp)
    80001f36:	ec56                	sd	s5,24(sp)
    80001f38:	e85a                	sd	s6,16(sp)
    80001f3a:	e45e                	sd	s7,8(sp)
    80001f3c:	0880                	addi	s0,sp,80
  struct proc *p;
  
  initlock(&pid_lock, "nextpid");
    80001f3e:	00006597          	auipc	a1,0x6
    80001f42:	31258593          	addi	a1,a1,786 # 80008250 <etext+0x250>
    80001f46:	001a2517          	auipc	a0,0x1a2
    80001f4a:	17250513          	addi	a0,a0,370 # 801a40b8 <pid_lock>
    80001f4e:	c8bfe0ef          	jal	80000bd8 <initlock>
  initlock(&wait_lock, "wait_lock");
    80001f52:	00006597          	auipc	a1,0x6
    80001f56:	30658593          	addi	a1,a1,774 # 80008258 <etext+0x258>
    80001f5a:	001a2517          	auipc	a0,0x1a2
    80001f5e:	17650513          	addi	a0,a0,374 # 801a40d0 <wait_lock>
    80001f62:	c77fe0ef          	jal	80000bd8 <initlock>
  for(p = proc; p < &proc[NPROC]; p++) {
    80001f66:	001a2497          	auipc	s1,0x1a2
    80001f6a:	7fa48493          	addi	s1,s1,2042 # 801a4760 <proc+0x278>
    80001f6e:	001a2917          	auipc	s2,0x1a2
    80001f72:	57a90913          	addi	s2,s2,1402 # 801a44e8 <proc>
      initlock(&p->lock, "proc");
    80001f76:	00006b97          	auipc	s7,0x6
    80001f7a:	2f2b8b93          	addi	s7,s7,754 # 80008268 <etext+0x268>
      p->state = UNUSED;
      p->kstack = KSTACK((int) (p - proc));
    80001f7e:	8b4a                	mv	s6,s2
    80001f80:	fcf3d9b7          	lui	s3,0xfcf3d
    80001f84:	f3d98993          	addi	s3,s3,-195 # fffffffffcf3cf3d <end+0xffffffff7cd82e5d>
    80001f88:	09b2                	slli	s3,s3,0xc
    80001f8a:	f3d98993          	addi	s3,s3,-195
    80001f8e:	09b2                	slli	s3,s3,0xc
    80001f90:	f3d98993          	addi	s3,s3,-195
    80001f94:	09b2                	slli	s3,s3,0xc
    80001f96:	f3d98993          	addi	s3,s3,-195
    80001f9a:	04000a37          	lui	s4,0x4000
    80001f9e:	1a7d                	addi	s4,s4,-1 # 3ffffff <_entry-0x7c000001>
    80001fa0:	0a32                	slli	s4,s4,0xc
  for(p = proc; p < &proc[NPROC]; p++) {
    80001fa2:	001ada97          	auipc	s5,0x1ad
    80001fa6:	d46a8a93          	addi	s5,s5,-698 # 801aece8 <proc_lock>
    80001faa:	a039                	j	80001fb8 <procinit+0x90>
    80001fac:	2a090913          	addi	s2,s2,672
    80001fb0:	2a048493          	addi	s1,s1,672
    80001fb4:	03590c63          	beq	s2,s5,80001fec <procinit+0xc4>
      initlock(&p->lock, "proc");
    80001fb8:	85de                	mv	a1,s7
    80001fba:	854a                	mv	a0,s2
    80001fbc:	c1dfe0ef          	jal	80000bd8 <initlock>
      p->state = UNUSED;
    80001fc0:	00092c23          	sw	zero,24(s2)
      p->kstack = KSTACK((int) (p - proc));
    80001fc4:	416907b3          	sub	a5,s2,s6
    80001fc8:	8795                	srai	a5,a5,0x5
    80001fca:	033787b3          	mul	a5,a5,s3
    80001fce:	2785                	addiw	a5,a5,1
    80001fd0:	00d7979b          	slliw	a5,a5,0xd
    80001fd4:	40fa07b3          	sub	a5,s4,a5
    80001fd8:	04f93023          	sd	a5,64(s2)
      // printf("\nInit sighandlers to NULL\n");
      for (int i = 0; i < 32; i++) {
    80001fdc:	17890793          	addi	a5,s2,376
        p->sig_handlers[i] = 0;  // Initialize handlers to NULL
    80001fe0:	0007b023          	sd	zero,0(a5)
      for (int i = 0; i < 32; i++) {
    80001fe4:	07a1                	addi	a5,a5,8
    80001fe6:	fe979de3          	bne	a5,s1,80001fe0 <procinit+0xb8>
    80001fea:	b7c9                	j	80001fac <procinit+0x84>
      }
  }
}
    80001fec:	60a6                	ld	ra,72(sp)
    80001fee:	6406                	ld	s0,64(sp)
    80001ff0:	74e2                	ld	s1,56(sp)
    80001ff2:	7942                	ld	s2,48(sp)
    80001ff4:	79a2                	ld	s3,40(sp)
    80001ff6:	7a02                	ld	s4,32(sp)
    80001ff8:	6ae2                	ld	s5,24(sp)
    80001ffa:	6b42                	ld	s6,16(sp)
    80001ffc:	6ba2                	ld	s7,8(sp)
    80001ffe:	6161                	addi	sp,sp,80
    80002000:	8082                	ret

0000000080002002 <cpuid>:
// Must be called with interrupts disabled,
// to prevent race with process being moved
// to a different CPU.
int
cpuid()
{
    80002002:	1141                	addi	sp,sp,-16
    80002004:	e422                	sd	s0,8(sp)
    80002006:	0800                	addi	s0,sp,16
  asm volatile("mv %0, tp" : "=r" (x) );
    80002008:	8512                	mv	a0,tp
  int id = r_tp();
  return id;
}
    8000200a:	2501                	sext.w	a0,a0
    8000200c:	6422                	ld	s0,8(sp)
    8000200e:	0141                	addi	sp,sp,16
    80002010:	8082                	ret

0000000080002012 <mycpu>:

// Return this CPU's cpu struct.
// Interrupts must be disabled.
struct cpu*
mycpu(void)
{
    80002012:	1141                	addi	sp,sp,-16
    80002014:	e422                	sd	s0,8(sp)
    80002016:	0800                	addi	s0,sp,16
    80002018:	8792                	mv	a5,tp
  int id = cpuid();
  struct cpu *c = &cpus[id];
    8000201a:	2781                	sext.w	a5,a5
    8000201c:	079e                	slli	a5,a5,0x7
  return c;
}
    8000201e:	001a2517          	auipc	a0,0x1a2
    80002022:	0ca50513          	addi	a0,a0,202 # 801a40e8 <cpus>
    80002026:	953e                	add	a0,a0,a5
    80002028:	6422                	ld	s0,8(sp)
    8000202a:	0141                	addi	sp,sp,16
    8000202c:	8082                	ret

000000008000202e <myproc>:

// Return the current struct proc *, or zero if none.
struct proc*
myproc(void)
{
    8000202e:	1101                	addi	sp,sp,-32
    80002030:	ec06                	sd	ra,24(sp)
    80002032:	e822                	sd	s0,16(sp)
    80002034:	e426                	sd	s1,8(sp)
    80002036:	1000                	addi	s0,sp,32
  push_off();
    80002038:	be1fe0ef          	jal	80000c18 <push_off>
    8000203c:	8792                	mv	a5,tp
  struct cpu *c = mycpu();
  struct proc *p = c->proc;
    8000203e:	2781                	sext.w	a5,a5
    80002040:	079e                	slli	a5,a5,0x7
    80002042:	001a2717          	auipc	a4,0x1a2
    80002046:	07670713          	addi	a4,a4,118 # 801a40b8 <pid_lock>
    8000204a:	97ba                	add	a5,a5,a4
    8000204c:	7b84                	ld	s1,48(a5)
  pop_off();
    8000204e:	c4ffe0ef          	jal	80000c9c <pop_off>
  return p;
}
    80002052:	8526                	mv	a0,s1
    80002054:	60e2                	ld	ra,24(sp)
    80002056:	6442                	ld	s0,16(sp)
    80002058:	64a2                	ld	s1,8(sp)
    8000205a:	6105                	addi	sp,sp,32
    8000205c:	8082                	ret

000000008000205e <forkret>:

// A fork child's very first scheduling by scheduler()
// will swtch to forkret.
void
forkret(void)
{
    8000205e:	1141                	addi	sp,sp,-16
    80002060:	e406                	sd	ra,8(sp)
    80002062:	e022                	sd	s0,0(sp)
    80002064:	0800                	addi	s0,sp,16
  static int first = 1;

  // Still holding p->lock from scheduler.
  release(&myproc()->lock);
    80002066:	fc9ff0ef          	jal	8000202e <myproc>
    8000206a:	c87fe0ef          	jal	80000cf0 <release>

  if (first) {
    8000206e:	00007797          	auipc	a5,0x7
    80002072:	9827a783          	lw	a5,-1662(a5) # 800089f0 <first.1>
    80002076:	e799                	bnez	a5,80002084 <forkret+0x26>
    first = 0;
    // ensure other cores see first=0.
    __sync_synchronize();
  }

  usertrapret();
    80002078:	561000ef          	jal	80002dd8 <usertrapret>
}
    8000207c:	60a2                	ld	ra,8(sp)
    8000207e:	6402                	ld	s0,0(sp)
    80002080:	0141                	addi	sp,sp,16
    80002082:	8082                	ret
    fsinit(ROOTDEV);
    80002084:	4505                	li	a0,1
    80002086:	2b5010ef          	jal	80003b3a <fsinit>
    first = 0;
    8000208a:	00007797          	auipc	a5,0x7
    8000208e:	9607a323          	sw	zero,-1690(a5) # 800089f0 <first.1>
    __sync_synchronize();
    80002092:	0ff0000f          	fence
    80002096:	b7cd                	j	80002078 <forkret+0x1a>

0000000080002098 <allocpid>:
{
    80002098:	1101                	addi	sp,sp,-32
    8000209a:	ec06                	sd	ra,24(sp)
    8000209c:	e822                	sd	s0,16(sp)
    8000209e:	e426                	sd	s1,8(sp)
    800020a0:	e04a                	sd	s2,0(sp)
    800020a2:	1000                	addi	s0,sp,32
  acquire(&pid_lock);
    800020a4:	001a2917          	auipc	s2,0x1a2
    800020a8:	01490913          	addi	s2,s2,20 # 801a40b8 <pid_lock>
    800020ac:	854a                	mv	a0,s2
    800020ae:	babfe0ef          	jal	80000c58 <acquire>
  pid = nextpid;
    800020b2:	00007797          	auipc	a5,0x7
    800020b6:	94278793          	addi	a5,a5,-1726 # 800089f4 <nextpid>
    800020ba:	4384                	lw	s1,0(a5)
  nextpid = nextpid + 1;
    800020bc:	0014871b          	addiw	a4,s1,1
    800020c0:	c398                	sw	a4,0(a5)
  release(&pid_lock);
    800020c2:	854a                	mv	a0,s2
    800020c4:	c2dfe0ef          	jal	80000cf0 <release>
}
    800020c8:	8526                	mv	a0,s1
    800020ca:	60e2                	ld	ra,24(sp)
    800020cc:	6442                	ld	s0,16(sp)
    800020ce:	64a2                	ld	s1,8(sp)
    800020d0:	6902                	ld	s2,0(sp)
    800020d2:	6105                	addi	sp,sp,32
    800020d4:	8082                	ret

00000000800020d6 <proc_pagetable>:
{
    800020d6:	1101                	addi	sp,sp,-32
    800020d8:	ec06                	sd	ra,24(sp)
    800020da:	e822                	sd	s0,16(sp)
    800020dc:	e426                	sd	s1,8(sp)
    800020de:	e04a                	sd	s2,0(sp)
    800020e0:	1000                	addi	s0,sp,32
    800020e2:	892a                	mv	s2,a0
  pagetable = uvmcreate();
    800020e4:	8bdff0ef          	jal	800019a0 <uvmcreate>
    800020e8:	84aa                	mv	s1,a0
  if(pagetable == 0)
    800020ea:	cd05                	beqz	a0,80002122 <proc_pagetable+0x4c>
  if(mappages(pagetable, TRAMPOLINE, PGSIZE,
    800020ec:	4729                	li	a4,10
    800020ee:	00005697          	auipc	a3,0x5
    800020f2:	f1268693          	addi	a3,a3,-238 # 80007000 <_trampoline>
    800020f6:	6605                	lui	a2,0x1
    800020f8:	040005b7          	lui	a1,0x4000
    800020fc:	15fd                	addi	a1,a1,-1 # 3ffffff <_entry-0x7c000001>
    800020fe:	05b2                	slli	a1,a1,0xc
    80002100:	e3eff0ef          	jal	8000173e <mappages>
    80002104:	02054663          	bltz	a0,80002130 <proc_pagetable+0x5a>
  if(mappages(pagetable, TRAPFRAME, PGSIZE,
    80002108:	4719                	li	a4,6
    8000210a:	06093683          	ld	a3,96(s2)
    8000210e:	6605                	lui	a2,0x1
    80002110:	020005b7          	lui	a1,0x2000
    80002114:	15fd                	addi	a1,a1,-1 # 1ffffff <_entry-0x7e000001>
    80002116:	05b6                	slli	a1,a1,0xd
    80002118:	8526                	mv	a0,s1
    8000211a:	e24ff0ef          	jal	8000173e <mappages>
    8000211e:	00054f63          	bltz	a0,8000213c <proc_pagetable+0x66>
}
    80002122:	8526                	mv	a0,s1
    80002124:	60e2                	ld	ra,24(sp)
    80002126:	6442                	ld	s0,16(sp)
    80002128:	64a2                	ld	s1,8(sp)
    8000212a:	6902                	ld	s2,0(sp)
    8000212c:	6105                	addi	sp,sp,32
    8000212e:	8082                	ret
    uvmfree(pagetable, 0);
    80002130:	4581                	li	a1,0
    80002132:	8526                	mv	a0,s1
    80002134:	a3bff0ef          	jal	80001b6e <uvmfree>
    return 0;
    80002138:	4481                	li	s1,0
    8000213a:	b7e5                	j	80002122 <proc_pagetable+0x4c>
    uvmunmap(pagetable, TRAMPOLINE, 1, 0);
    8000213c:	4681                	li	a3,0
    8000213e:	4605                	li	a2,1
    80002140:	040005b7          	lui	a1,0x4000
    80002144:	15fd                	addi	a1,a1,-1 # 3ffffff <_entry-0x7c000001>
    80002146:	05b2                	slli	a1,a1,0xc
    80002148:	8526                	mv	a0,s1
    8000214a:	f9aff0ef          	jal	800018e4 <uvmunmap>
    uvmfree(pagetable, 0);
    8000214e:	4581                	li	a1,0
    80002150:	8526                	mv	a0,s1
    80002152:	a1dff0ef          	jal	80001b6e <uvmfree>
    return 0;
    80002156:	4481                	li	s1,0
    80002158:	b7e9                	j	80002122 <proc_pagetable+0x4c>

000000008000215a <proc_freepagetable>:
{
    8000215a:	1101                	addi	sp,sp,-32
    8000215c:	ec06                	sd	ra,24(sp)
    8000215e:	e822                	sd	s0,16(sp)
    80002160:	e426                	sd	s1,8(sp)
    80002162:	e04a                	sd	s2,0(sp)
    80002164:	1000                	addi	s0,sp,32
    80002166:	84aa                	mv	s1,a0
    80002168:	892e                	mv	s2,a1
  uvmunmap(pagetable, TRAMPOLINE, 1, 0);
    8000216a:	4681                	li	a3,0
    8000216c:	4605                	li	a2,1
    8000216e:	040005b7          	lui	a1,0x4000
    80002172:	15fd                	addi	a1,a1,-1 # 3ffffff <_entry-0x7c000001>
    80002174:	05b2                	slli	a1,a1,0xc
    80002176:	f6eff0ef          	jal	800018e4 <uvmunmap>
  uvmunmap(pagetable, TRAPFRAME, 1, 0);
    8000217a:	4681                	li	a3,0
    8000217c:	4605                	li	a2,1
    8000217e:	020005b7          	lui	a1,0x2000
    80002182:	15fd                	addi	a1,a1,-1 # 1ffffff <_entry-0x7e000001>
    80002184:	05b6                	slli	a1,a1,0xd
    80002186:	8526                	mv	a0,s1
    80002188:	f5cff0ef          	jal	800018e4 <uvmunmap>
  uvmfree(pagetable, sz);
    8000218c:	85ca                	mv	a1,s2
    8000218e:	8526                	mv	a0,s1
    80002190:	9dfff0ef          	jal	80001b6e <uvmfree>
}
    80002194:	60e2                	ld	ra,24(sp)
    80002196:	6442                	ld	s0,16(sp)
    80002198:	64a2                	ld	s1,8(sp)
    8000219a:	6902                	ld	s2,0(sp)
    8000219c:	6105                	addi	sp,sp,32
    8000219e:	8082                	ret

00000000800021a0 <freeproc>:
{
    800021a0:	1101                	addi	sp,sp,-32
    800021a2:	ec06                	sd	ra,24(sp)
    800021a4:	e822                	sd	s0,16(sp)
    800021a6:	e426                	sd	s1,8(sp)
    800021a8:	1000                	addi	s0,sp,32
    800021aa:	84aa                	mv	s1,a0
  if(p->trapframe)
    800021ac:	7128                	ld	a0,96(a0)
    800021ae:	c119                	beqz	a0,800021b4 <freeproc+0x14>
    kfree((void*)p->trapframe);
    800021b0:	8f7fe0ef          	jal	80000aa6 <kfree>
  p->trapframe = 0;
    800021b4:	0604b023          	sd	zero,96(s1)
  if(p->pagetable)
    800021b8:	6ca8                	ld	a0,88(s1)
    800021ba:	c501                	beqz	a0,800021c2 <freeproc+0x22>
    proc_freepagetable(p->pagetable, p->sz);
    800021bc:	68ac                	ld	a1,80(s1)
    800021be:	f9dff0ef          	jal	8000215a <proc_freepagetable>
  p->pagetable = 0;
    800021c2:	0404bc23          	sd	zero,88(s1)
  p->sz = 0;
    800021c6:	0404b823          	sd	zero,80(s1)
  p->pid = 0;
    800021ca:	0204a823          	sw	zero,48(s1)
  p->parent = 0;
    800021ce:	0204bc23          	sd	zero,56(s1)
  p->name[0] = 0;
    800021d2:	16048023          	sb	zero,352(s1)
  p->chan = 0;
    800021d6:	0204b023          	sd	zero,32(s1)
  p->killed = 0;
    800021da:	0204a423          	sw	zero,40(s1)
  p->xstate = 0;
    800021de:	0204a623          	sw	zero,44(s1)
  p->state = UNUSED;
    800021e2:	0004ac23          	sw	zero,24(s1)
  if(p->is_thread && p->stack) {
    800021e6:	2784a783          	lw	a5,632(s1)
    800021ea:	cb81                	beqz	a5,800021fa <freeproc+0x5a>
    800021ec:	2804b503          	ld	a0,640(s1)
    800021f0:	c509                	beqz	a0,800021fa <freeproc+0x5a>
    kfree(p->stack);
    800021f2:	8b5fe0ef          	jal	80000aa6 <kfree>
    p->stack = 0;
    800021f6:	2804b023          	sd	zero,640(s1)
  p->is_thread = 0;
    800021fa:	2604ac23          	sw	zero,632(s1)
  p->thread_parent = 0;
    800021fe:	2804b423          	sd	zero,648(s1)
}
    80002202:	60e2                	ld	ra,24(sp)
    80002204:	6442                	ld	s0,16(sp)
    80002206:	64a2                	ld	s1,8(sp)
    80002208:	6105                	addi	sp,sp,32
    8000220a:	8082                	ret

000000008000220c <allocproc>:
{
    8000220c:	1101                	addi	sp,sp,-32
    8000220e:	ec06                	sd	ra,24(sp)
    80002210:	e822                	sd	s0,16(sp)
    80002212:	e426                	sd	s1,8(sp)
    80002214:	e04a                	sd	s2,0(sp)
    80002216:	1000                	addi	s0,sp,32
  for(p = proc; p < &proc[NPROC]; p++) {
    80002218:	001a2497          	auipc	s1,0x1a2
    8000221c:	2d048493          	addi	s1,s1,720 # 801a44e8 <proc>
    80002220:	001ad917          	auipc	s2,0x1ad
    80002224:	ac890913          	addi	s2,s2,-1336 # 801aece8 <proc_lock>
    acquire(&p->lock);
    80002228:	8526                	mv	a0,s1
    8000222a:	a2ffe0ef          	jal	80000c58 <acquire>
    if(p->state == UNUSED) {
    8000222e:	4c9c                	lw	a5,24(s1)
    80002230:	cb91                	beqz	a5,80002244 <allocproc+0x38>
      release(&p->lock);
    80002232:	8526                	mv	a0,s1
    80002234:	abdfe0ef          	jal	80000cf0 <release>
  for(p = proc; p < &proc[NPROC]; p++) {
    80002238:	2a048493          	addi	s1,s1,672
    8000223c:	ff2496e3          	bne	s1,s2,80002228 <allocproc+0x1c>
  return 0;
    80002240:	4481                	li	s1,0
    80002242:	a089                	j	80002284 <allocproc+0x78>
  p->pid = allocpid();
    80002244:	e55ff0ef          	jal	80002098 <allocpid>
    80002248:	d888                	sw	a0,48(s1)
  p->state = USED;
    8000224a:	4785                	li	a5,1
    8000224c:	cc9c                	sw	a5,24(s1)
  if((p->trapframe = (struct trapframe *)kalloc()) == 0){
    8000224e:	93bfe0ef          	jal	80000b88 <kalloc>
    80002252:	892a                	mv	s2,a0
    80002254:	f0a8                	sd	a0,96(s1)
    80002256:	cd15                	beqz	a0,80002292 <allocproc+0x86>
  p->pagetable = proc_pagetable(p);
    80002258:	8526                	mv	a0,s1
    8000225a:	e7dff0ef          	jal	800020d6 <proc_pagetable>
    8000225e:	892a                	mv	s2,a0
    80002260:	eca8                	sd	a0,88(s1)
  if(p->pagetable == 0){
    80002262:	c121                	beqz	a0,800022a2 <allocproc+0x96>
  memset(&p->context, 0, sizeof(p->context));
    80002264:	07000613          	li	a2,112
    80002268:	4581                	li	a1,0
    8000226a:	06848513          	addi	a0,s1,104
    8000226e:	abffe0ef          	jal	80000d2c <memset>
  p->context.ra = (uint64)forkret;
    80002272:	00000797          	auipc	a5,0x0
    80002276:	dec78793          	addi	a5,a5,-532 # 8000205e <forkret>
    8000227a:	f4bc                	sd	a5,104(s1)
  p->context.sp = p->kstack + PGSIZE;
    8000227c:	60bc                	ld	a5,64(s1)
    8000227e:	6705                	lui	a4,0x1
    80002280:	97ba                	add	a5,a5,a4
    80002282:	f8bc                	sd	a5,112(s1)
}
    80002284:	8526                	mv	a0,s1
    80002286:	60e2                	ld	ra,24(sp)
    80002288:	6442                	ld	s0,16(sp)
    8000228a:	64a2                	ld	s1,8(sp)
    8000228c:	6902                	ld	s2,0(sp)
    8000228e:	6105                	addi	sp,sp,32
    80002290:	8082                	ret
    freeproc(p);
    80002292:	8526                	mv	a0,s1
    80002294:	f0dff0ef          	jal	800021a0 <freeproc>
    release(&p->lock);
    80002298:	8526                	mv	a0,s1
    8000229a:	a57fe0ef          	jal	80000cf0 <release>
    return 0;
    8000229e:	84ca                	mv	s1,s2
    800022a0:	b7d5                	j	80002284 <allocproc+0x78>
    freeproc(p);
    800022a2:	8526                	mv	a0,s1
    800022a4:	efdff0ef          	jal	800021a0 <freeproc>
    release(&p->lock);
    800022a8:	8526                	mv	a0,s1
    800022aa:	a47fe0ef          	jal	80000cf0 <release>
    return 0;
    800022ae:	84ca                	mv	s1,s2
    800022b0:	bfd1                	j	80002284 <allocproc+0x78>

00000000800022b2 <userinit>:
{
    800022b2:	1101                	addi	sp,sp,-32
    800022b4:	ec06                	sd	ra,24(sp)
    800022b6:	e822                	sd	s0,16(sp)
    800022b8:	e426                	sd	s1,8(sp)
    800022ba:	1000                	addi	s0,sp,32
  p = allocproc();
    800022bc:	f51ff0ef          	jal	8000220c <allocproc>
    800022c0:	84aa                	mv	s1,a0
  initproc = p;
    800022c2:	00006797          	auipc	a5,0x6
    800022c6:	7aa7b323          	sd	a0,1958(a5) # 80008a68 <initproc>
  uvmfirst(p->pagetable, initcode, sizeof(initcode));
    800022ca:	03400613          	li	a2,52
    800022ce:	00006597          	auipc	a1,0x6
    800022d2:	73258593          	addi	a1,a1,1842 # 80008a00 <initcode>
    800022d6:	6d28                	ld	a0,88(a0)
    800022d8:	eeeff0ef          	jal	800019c6 <uvmfirst>
  p->sz = PGSIZE;
    800022dc:	6785                	lui	a5,0x1
    800022de:	e8bc                	sd	a5,80(s1)
  p->trapframe->epc = 0;      // user program counter
    800022e0:	70b8                	ld	a4,96(s1)
    800022e2:	00073c23          	sd	zero,24(a4) # 1018 <_entry-0x7fffefe8>
  p->trapframe->sp = PGSIZE;  // user stack pointer
    800022e6:	70b8                	ld	a4,96(s1)
    800022e8:	fb1c                	sd	a5,48(a4)
  safestrcpy(p->name, "initcode", sizeof(p->name));
    800022ea:	4641                	li	a2,16
    800022ec:	00006597          	auipc	a1,0x6
    800022f0:	f8458593          	addi	a1,a1,-124 # 80008270 <etext+0x270>
    800022f4:	16048513          	addi	a0,s1,352
    800022f8:	b73fe0ef          	jal	80000e6a <safestrcpy>
  p->cwd = namei("/");
    800022fc:	00006517          	auipc	a0,0x6
    80002300:	f8450513          	addi	a0,a0,-124 # 80008280 <etext+0x280>
    80002304:	144020ef          	jal	80004448 <namei>
    80002308:	14a4bc23          	sd	a0,344(s1)
  p->state = RUNNABLE;
    8000230c:	478d                	li	a5,3
    8000230e:	cc9c                	sw	a5,24(s1)
  release(&p->lock);
    80002310:	8526                	mv	a0,s1
    80002312:	9dffe0ef          	jal	80000cf0 <release>
}
    80002316:	60e2                	ld	ra,24(sp)
    80002318:	6442                	ld	s0,16(sp)
    8000231a:	64a2                	ld	s1,8(sp)
    8000231c:	6105                	addi	sp,sp,32
    8000231e:	8082                	ret

0000000080002320 <growproc>:
{
    80002320:	1101                	addi	sp,sp,-32
    80002322:	ec06                	sd	ra,24(sp)
    80002324:	e822                	sd	s0,16(sp)
    80002326:	e426                	sd	s1,8(sp)
    80002328:	e04a                	sd	s2,0(sp)
    8000232a:	1000                	addi	s0,sp,32
    8000232c:	892a                	mv	s2,a0
  struct proc *p = myproc();
    8000232e:	d01ff0ef          	jal	8000202e <myproc>
    80002332:	84aa                	mv	s1,a0
  sz = p->sz;
    80002334:	692c                	ld	a1,80(a0)
  if(n > 0){
    80002336:	01204c63          	bgtz	s2,8000234e <growproc+0x2e>
  } else if(n < 0){
    8000233a:	02094463          	bltz	s2,80002362 <growproc+0x42>
  p->sz = sz;
    8000233e:	e8ac                	sd	a1,80(s1)
  return 0;
    80002340:	4501                	li	a0,0
}
    80002342:	60e2                	ld	ra,24(sp)
    80002344:	6442                	ld	s0,16(sp)
    80002346:	64a2                	ld	s1,8(sp)
    80002348:	6902                	ld	s2,0(sp)
    8000234a:	6105                	addi	sp,sp,32
    8000234c:	8082                	ret
    if((sz = uvmalloc(p->pagetable, sz, sz + n, PTE_W)) == 0) {
    8000234e:	4691                	li	a3,4
    80002350:	00b90633          	add	a2,s2,a1
    80002354:	6d28                	ld	a0,88(a0)
    80002356:	f12ff0ef          	jal	80001a68 <uvmalloc>
    8000235a:	85aa                	mv	a1,a0
    8000235c:	f16d                	bnez	a0,8000233e <growproc+0x1e>
      return -1;
    8000235e:	557d                	li	a0,-1
    80002360:	b7cd                	j	80002342 <growproc+0x22>
    sz = uvmdealloc(p->pagetable, sz, sz + n);
    80002362:	00b90633          	add	a2,s2,a1
    80002366:	6d28                	ld	a0,88(a0)
    80002368:	ebcff0ef          	jal	80001a24 <uvmdealloc>
    8000236c:	85aa                	mv	a1,a0
    8000236e:	bfc1                	j	8000233e <growproc+0x1e>

0000000080002370 <fork>:
{
    80002370:	7139                	addi	sp,sp,-64
    80002372:	fc06                	sd	ra,56(sp)
    80002374:	f822                	sd	s0,48(sp)
    80002376:	f04a                	sd	s2,32(sp)
    80002378:	e456                	sd	s5,8(sp)
    8000237a:	0080                	addi	s0,sp,64
  struct proc *p = myproc();
    8000237c:	cb3ff0ef          	jal	8000202e <myproc>
    80002380:	8aaa                	mv	s5,a0
  if((np = allocproc()) == 0){
    80002382:	e8bff0ef          	jal	8000220c <allocproc>
    80002386:	0e050a63          	beqz	a0,8000247a <fork+0x10a>
    8000238a:	e852                	sd	s4,16(sp)
    8000238c:	8a2a                	mv	s4,a0
  if(uvmcopy(p->pagetable, np->pagetable, p->sz) < 0){
    8000238e:	050ab603          	ld	a2,80(s5)
    80002392:	6d2c                	ld	a1,88(a0)
    80002394:	058ab503          	ld	a0,88(s5)
    80002398:	809ff0ef          	jal	80001ba0 <uvmcopy>
    8000239c:	04054a63          	bltz	a0,800023f0 <fork+0x80>
    800023a0:	f426                	sd	s1,40(sp)
    800023a2:	ec4e                	sd	s3,24(sp)
  np->sz = p->sz;
    800023a4:	050ab783          	ld	a5,80(s5)
    800023a8:	04fa3823          	sd	a5,80(s4)
  *(np->trapframe) = *(p->trapframe);
    800023ac:	060ab683          	ld	a3,96(s5)
    800023b0:	87b6                	mv	a5,a3
    800023b2:	060a3703          	ld	a4,96(s4)
    800023b6:	12068693          	addi	a3,a3,288
    800023ba:	0007b803          	ld	a6,0(a5) # 1000 <_entry-0x7ffff000>
    800023be:	6788                	ld	a0,8(a5)
    800023c0:	6b8c                	ld	a1,16(a5)
    800023c2:	6f90                	ld	a2,24(a5)
    800023c4:	01073023          	sd	a6,0(a4)
    800023c8:	e708                	sd	a0,8(a4)
    800023ca:	eb0c                	sd	a1,16(a4)
    800023cc:	ef10                	sd	a2,24(a4)
    800023ce:	02078793          	addi	a5,a5,32
    800023d2:	02070713          	addi	a4,a4,32
    800023d6:	fed792e3          	bne	a5,a3,800023ba <fork+0x4a>
  np->trapframe->a0 = 0;
    800023da:	060a3783          	ld	a5,96(s4)
    800023de:	0607b823          	sd	zero,112(a5)
  for(i = 0; i < NOFILE; i++)
    800023e2:	0d8a8493          	addi	s1,s5,216
    800023e6:	0d8a0913          	addi	s2,s4,216
    800023ea:	158a8993          	addi	s3,s5,344
    800023ee:	a831                	j	8000240a <fork+0x9a>
    freeproc(np);
    800023f0:	8552                	mv	a0,s4
    800023f2:	dafff0ef          	jal	800021a0 <freeproc>
    release(&np->lock);
    800023f6:	8552                	mv	a0,s4
    800023f8:	8f9fe0ef          	jal	80000cf0 <release>
    return -1;
    800023fc:	597d                	li	s2,-1
    800023fe:	6a42                	ld	s4,16(sp)
    80002400:	a0b5                	j	8000246c <fork+0xfc>
  for(i = 0; i < NOFILE; i++)
    80002402:	04a1                	addi	s1,s1,8
    80002404:	0921                	addi	s2,s2,8
    80002406:	01348963          	beq	s1,s3,80002418 <fork+0xa8>
    if(p->ofile[i])
    8000240a:	6088                	ld	a0,0(s1)
    8000240c:	d97d                	beqz	a0,80002402 <fork+0x92>
      np->ofile[i] = filedup(p->ofile[i]);
    8000240e:	5ca020ef          	jal	800049d8 <filedup>
    80002412:	00a93023          	sd	a0,0(s2)
    80002416:	b7f5                	j	80002402 <fork+0x92>
  np->cwd = idup(p->cwd);
    80002418:	158ab503          	ld	a0,344(s5)
    8000241c:	11d010ef          	jal	80003d38 <idup>
    80002420:	14aa3c23          	sd	a0,344(s4)
  safestrcpy(np->name, p->name, sizeof(p->name));
    80002424:	4641                	li	a2,16
    80002426:	160a8593          	addi	a1,s5,352
    8000242a:	160a0513          	addi	a0,s4,352
    8000242e:	a3dfe0ef          	jal	80000e6a <safestrcpy>
  pid = np->pid;
    80002432:	030a2903          	lw	s2,48(s4)
  release(&np->lock);
    80002436:	8552                	mv	a0,s4
    80002438:	8b9fe0ef          	jal	80000cf0 <release>
  acquire(&wait_lock);
    8000243c:	001a2497          	auipc	s1,0x1a2
    80002440:	c9448493          	addi	s1,s1,-876 # 801a40d0 <wait_lock>
    80002444:	8526                	mv	a0,s1
    80002446:	813fe0ef          	jal	80000c58 <acquire>
  np->parent = p;
    8000244a:	035a3c23          	sd	s5,56(s4)
  release(&wait_lock);
    8000244e:	8526                	mv	a0,s1
    80002450:	8a1fe0ef          	jal	80000cf0 <release>
  acquire(&np->lock);
    80002454:	8552                	mv	a0,s4
    80002456:	803fe0ef          	jal	80000c58 <acquire>
  np->state = RUNNABLE;
    8000245a:	478d                	li	a5,3
    8000245c:	00fa2c23          	sw	a5,24(s4)
  release(&np->lock);
    80002460:	8552                	mv	a0,s4
    80002462:	88ffe0ef          	jal	80000cf0 <release>
  return pid;
    80002466:	74a2                	ld	s1,40(sp)
    80002468:	69e2                	ld	s3,24(sp)
    8000246a:	6a42                	ld	s4,16(sp)
}
    8000246c:	854a                	mv	a0,s2
    8000246e:	70e2                	ld	ra,56(sp)
    80002470:	7442                	ld	s0,48(sp)
    80002472:	7902                	ld	s2,32(sp)
    80002474:	6aa2                	ld	s5,8(sp)
    80002476:	6121                	addi	sp,sp,64
    80002478:	8082                	ret
    return -1;
    8000247a:	597d                	li	s2,-1
    8000247c:	bfc5                	j	8000246c <fork+0xfc>

000000008000247e <scheduler>:
{
    8000247e:	715d                	addi	sp,sp,-80
    80002480:	e486                	sd	ra,72(sp)
    80002482:	e0a2                	sd	s0,64(sp)
    80002484:	fc26                	sd	s1,56(sp)
    80002486:	f84a                	sd	s2,48(sp)
    80002488:	f44e                	sd	s3,40(sp)
    8000248a:	f052                	sd	s4,32(sp)
    8000248c:	ec56                	sd	s5,24(sp)
    8000248e:	e85a                	sd	s6,16(sp)
    80002490:	e45e                	sd	s7,8(sp)
    80002492:	e062                	sd	s8,0(sp)
    80002494:	0880                	addi	s0,sp,80
    80002496:	8792                	mv	a5,tp
  int id = r_tp();
    80002498:	2781                	sext.w	a5,a5
  c->proc = 0;
    8000249a:	00779b13          	slli	s6,a5,0x7
    8000249e:	001a2717          	auipc	a4,0x1a2
    800024a2:	c1a70713          	addi	a4,a4,-998 # 801a40b8 <pid_lock>
    800024a6:	975a                	add	a4,a4,s6
    800024a8:	02073823          	sd	zero,48(a4)
        swtch(&c->context, &p->context);
    800024ac:	001a2717          	auipc	a4,0x1a2
    800024b0:	c4470713          	addi	a4,a4,-956 # 801a40f0 <cpus+0x8>
    800024b4:	9b3a                	add	s6,s6,a4
        p->state = RUNNING;
    800024b6:	4c11                	li	s8,4
        c->proc = p;
    800024b8:	079e                	slli	a5,a5,0x7
    800024ba:	001a2a17          	auipc	s4,0x1a2
    800024be:	bfea0a13          	addi	s4,s4,-1026 # 801a40b8 <pid_lock>
    800024c2:	9a3e                	add	s4,s4,a5
        found = 1;
    800024c4:	4b85                	li	s7,1
    for(p = proc; p < &proc[NPROC]; p++) {
    800024c6:	001ad997          	auipc	s3,0x1ad
    800024ca:	82298993          	addi	s3,s3,-2014 # 801aece8 <proc_lock>
    800024ce:	a0a9                	j	80002518 <scheduler+0x9a>
      release(&p->lock);
    800024d0:	8526                	mv	a0,s1
    800024d2:	81ffe0ef          	jal	80000cf0 <release>
    for(p = proc; p < &proc[NPROC]; p++) {
    800024d6:	2a048493          	addi	s1,s1,672
    800024da:	03348563          	beq	s1,s3,80002504 <scheduler+0x86>
      acquire(&p->lock);
    800024de:	8526                	mv	a0,s1
    800024e0:	f78fe0ef          	jal	80000c58 <acquire>
      if(p->state == RUNNABLE) {
    800024e4:	4c9c                	lw	a5,24(s1)
    800024e6:	ff2795e3          	bne	a5,s2,800024d0 <scheduler+0x52>
        p->state = RUNNING;
    800024ea:	0184ac23          	sw	s8,24(s1)
        c->proc = p;
    800024ee:	029a3823          	sd	s1,48(s4)
        swtch(&c->context, &p->context);
    800024f2:	06848593          	addi	a1,s1,104
    800024f6:	855a                	mv	a0,s6
    800024f8:	03b000ef          	jal	80002d32 <swtch>
        c->proc = 0;
    800024fc:	020a3823          	sd	zero,48(s4)
        found = 1;
    80002500:	8ade                	mv	s5,s7
    80002502:	b7f9                	j	800024d0 <scheduler+0x52>
    if(found == 0) {
    80002504:	000a9a63          	bnez	s5,80002518 <scheduler+0x9a>
  asm volatile("csrr %0, sstatus" : "=r" (x) );
    80002508:	100027f3          	csrr	a5,sstatus
  w_sstatus(r_sstatus() | SSTATUS_SIE);
    8000250c:	0027e793          	ori	a5,a5,2
  asm volatile("csrw sstatus, %0" : : "r" (x));
    80002510:	10079073          	csrw	sstatus,a5
      asm volatile("wfi");
    80002514:	10500073          	wfi
  asm volatile("csrr %0, sstatus" : "=r" (x) );
    80002518:	100027f3          	csrr	a5,sstatus
  w_sstatus(r_sstatus() | SSTATUS_SIE);
    8000251c:	0027e793          	ori	a5,a5,2
  asm volatile("csrw sstatus, %0" : : "r" (x));
    80002520:	10079073          	csrw	sstatus,a5
    int found = 0;
    80002524:	4a81                	li	s5,0
    for(p = proc; p < &proc[NPROC]; p++) {
    80002526:	001a2497          	auipc	s1,0x1a2
    8000252a:	fc248493          	addi	s1,s1,-62 # 801a44e8 <proc>
      if(p->state == RUNNABLE) {
    8000252e:	490d                	li	s2,3
    80002530:	b77d                	j	800024de <scheduler+0x60>

0000000080002532 <sched>:
{
    80002532:	7179                	addi	sp,sp,-48
    80002534:	f406                	sd	ra,40(sp)
    80002536:	f022                	sd	s0,32(sp)
    80002538:	ec26                	sd	s1,24(sp)
    8000253a:	e84a                	sd	s2,16(sp)
    8000253c:	e44e                	sd	s3,8(sp)
    8000253e:	1800                	addi	s0,sp,48
  struct proc *p = myproc();
    80002540:	aefff0ef          	jal	8000202e <myproc>
    80002544:	84aa                	mv	s1,a0
  if(!holding(&p->lock))
    80002546:	ea8fe0ef          	jal	80000bee <holding>
    8000254a:	c92d                	beqz	a0,800025bc <sched+0x8a>
  asm volatile("mv %0, tp" : "=r" (x) );
    8000254c:	8792                	mv	a5,tp
  if(mycpu()->noff != 1)
    8000254e:	2781                	sext.w	a5,a5
    80002550:	079e                	slli	a5,a5,0x7
    80002552:	001a2717          	auipc	a4,0x1a2
    80002556:	b6670713          	addi	a4,a4,-1178 # 801a40b8 <pid_lock>
    8000255a:	97ba                	add	a5,a5,a4
    8000255c:	0a87a703          	lw	a4,168(a5)
    80002560:	4785                	li	a5,1
    80002562:	06f71363          	bne	a4,a5,800025c8 <sched+0x96>
  if(p->state == RUNNING)
    80002566:	4c98                	lw	a4,24(s1)
    80002568:	4791                	li	a5,4
    8000256a:	06f70563          	beq	a4,a5,800025d4 <sched+0xa2>
  asm volatile("csrr %0, sstatus" : "=r" (x) );
    8000256e:	100027f3          	csrr	a5,sstatus
  return (x & SSTATUS_SIE) != 0;
    80002572:	8b89                	andi	a5,a5,2
  if(intr_get())
    80002574:	e7b5                	bnez	a5,800025e0 <sched+0xae>
  asm volatile("mv %0, tp" : "=r" (x) );
    80002576:	8792                	mv	a5,tp
  intena = mycpu()->intena;
    80002578:	001a2917          	auipc	s2,0x1a2
    8000257c:	b4090913          	addi	s2,s2,-1216 # 801a40b8 <pid_lock>
    80002580:	2781                	sext.w	a5,a5
    80002582:	079e                	slli	a5,a5,0x7
    80002584:	97ca                	add	a5,a5,s2
    80002586:	0ac7a983          	lw	s3,172(a5)
    8000258a:	8792                	mv	a5,tp
  swtch(&p->context, &mycpu()->context);
    8000258c:	2781                	sext.w	a5,a5
    8000258e:	079e                	slli	a5,a5,0x7
    80002590:	001a2597          	auipc	a1,0x1a2
    80002594:	b6058593          	addi	a1,a1,-1184 # 801a40f0 <cpus+0x8>
    80002598:	95be                	add	a1,a1,a5
    8000259a:	06848513          	addi	a0,s1,104
    8000259e:	794000ef          	jal	80002d32 <swtch>
    800025a2:	8792                	mv	a5,tp
  mycpu()->intena = intena;
    800025a4:	2781                	sext.w	a5,a5
    800025a6:	079e                	slli	a5,a5,0x7
    800025a8:	993e                	add	s2,s2,a5
    800025aa:	0b392623          	sw	s3,172(s2)
}
    800025ae:	70a2                	ld	ra,40(sp)
    800025b0:	7402                	ld	s0,32(sp)
    800025b2:	64e2                	ld	s1,24(sp)
    800025b4:	6942                	ld	s2,16(sp)
    800025b6:	69a2                	ld	s3,8(sp)
    800025b8:	6145                	addi	sp,sp,48
    800025ba:	8082                	ret
    panic("sched p->lock");
    800025bc:	00006517          	auipc	a0,0x6
    800025c0:	ccc50513          	addi	a0,a0,-820 # 80008288 <etext+0x288>
    800025c4:	a34fe0ef          	jal	800007f8 <panic>
    panic("sched locks");
    800025c8:	00006517          	auipc	a0,0x6
    800025cc:	cd050513          	addi	a0,a0,-816 # 80008298 <etext+0x298>
    800025d0:	a28fe0ef          	jal	800007f8 <panic>
    panic("sched running");
    800025d4:	00006517          	auipc	a0,0x6
    800025d8:	cd450513          	addi	a0,a0,-812 # 800082a8 <etext+0x2a8>
    800025dc:	a1cfe0ef          	jal	800007f8 <panic>
    panic("sched interruptible");
    800025e0:	00006517          	auipc	a0,0x6
    800025e4:	cd850513          	addi	a0,a0,-808 # 800082b8 <etext+0x2b8>
    800025e8:	a10fe0ef          	jal	800007f8 <panic>

00000000800025ec <yield>:
{
    800025ec:	1101                	addi	sp,sp,-32
    800025ee:	ec06                	sd	ra,24(sp)
    800025f0:	e822                	sd	s0,16(sp)
    800025f2:	e426                	sd	s1,8(sp)
    800025f4:	1000                	addi	s0,sp,32
  struct proc *p = myproc();
    800025f6:	a39ff0ef          	jal	8000202e <myproc>
    800025fa:	84aa                	mv	s1,a0
  acquire(&p->lock);
    800025fc:	e5cfe0ef          	jal	80000c58 <acquire>
  p->state = RUNNABLE;
    80002600:	478d                	li	a5,3
    80002602:	cc9c                	sw	a5,24(s1)
  sched();
    80002604:	f2fff0ef          	jal	80002532 <sched>
  release(&p->lock);
    80002608:	8526                	mv	a0,s1
    8000260a:	ee6fe0ef          	jal	80000cf0 <release>
}
    8000260e:	60e2                	ld	ra,24(sp)
    80002610:	6442                	ld	s0,16(sp)
    80002612:	64a2                	ld	s1,8(sp)
    80002614:	6105                	addi	sp,sp,32
    80002616:	8082                	ret

0000000080002618 <sleep>:

// Atomically release lock and sleep on chan.
// Reacquires lock when awakened.
void
sleep(void *chan, struct spinlock *lk)
{
    80002618:	7179                	addi	sp,sp,-48
    8000261a:	f406                	sd	ra,40(sp)
    8000261c:	f022                	sd	s0,32(sp)
    8000261e:	ec26                	sd	s1,24(sp)
    80002620:	e84a                	sd	s2,16(sp)
    80002622:	e44e                	sd	s3,8(sp)
    80002624:	1800                	addi	s0,sp,48
    80002626:	89aa                	mv	s3,a0
    80002628:	892e                	mv	s2,a1
  struct proc *p = myproc();
    8000262a:	a05ff0ef          	jal	8000202e <myproc>
    8000262e:	84aa                	mv	s1,a0
  // Once we hold p->lock, we can be
  // guaranteed that we won't miss any wakeup
  // (wakeup locks p->lock),
  // so it's okay to release lk.

  acquire(&p->lock);  //DOC: sleeplock1
    80002630:	e28fe0ef          	jal	80000c58 <acquire>
  release(lk);
    80002634:	854a                	mv	a0,s2
    80002636:	ebafe0ef          	jal	80000cf0 <release>

  // Go to sleep.
  p->chan = chan;
    8000263a:	0334b023          	sd	s3,32(s1)
  p->state = SLEEPING;
    8000263e:	4789                	li	a5,2
    80002640:	cc9c                	sw	a5,24(s1)

  sched();
    80002642:	ef1ff0ef          	jal	80002532 <sched>

  // Tidy up.
  p->chan = 0;
    80002646:	0204b023          	sd	zero,32(s1)

  // Reacquire original lock.
  release(&p->lock);
    8000264a:	8526                	mv	a0,s1
    8000264c:	ea4fe0ef          	jal	80000cf0 <release>
  acquire(lk);
    80002650:	854a                	mv	a0,s2
    80002652:	e06fe0ef          	jal	80000c58 <acquire>
}
    80002656:	70a2                	ld	ra,40(sp)
    80002658:	7402                	ld	s0,32(sp)
    8000265a:	64e2                	ld	s1,24(sp)
    8000265c:	6942                	ld	s2,16(sp)
    8000265e:	69a2                	ld	s3,8(sp)
    80002660:	6145                	addi	sp,sp,48
    80002662:	8082                	ret

0000000080002664 <wakeup>:

// Wake up all processes sleeping on chan.
// Must be called without any p->lock.
void
wakeup(void *chan)
{
    80002664:	7139                	addi	sp,sp,-64
    80002666:	fc06                	sd	ra,56(sp)
    80002668:	f822                	sd	s0,48(sp)
    8000266a:	f426                	sd	s1,40(sp)
    8000266c:	f04a                	sd	s2,32(sp)
    8000266e:	ec4e                	sd	s3,24(sp)
    80002670:	e852                	sd	s4,16(sp)
    80002672:	e456                	sd	s5,8(sp)
    80002674:	0080                	addi	s0,sp,64
    80002676:	8a2a                	mv	s4,a0
  struct proc *p;

  for(p = proc; p < &proc[NPROC]; p++) {
    80002678:	001a2497          	auipc	s1,0x1a2
    8000267c:	e7048493          	addi	s1,s1,-400 # 801a44e8 <proc>
    if(p != myproc()){
      acquire(&p->lock);
      if(p->state == SLEEPING && p->chan == chan) {
    80002680:	4989                	li	s3,2
        p->state = RUNNABLE;
    80002682:	4a8d                	li	s5,3
  for(p = proc; p < &proc[NPROC]; p++) {
    80002684:	001ac917          	auipc	s2,0x1ac
    80002688:	66490913          	addi	s2,s2,1636 # 801aece8 <proc_lock>
    8000268c:	a801                	j	8000269c <wakeup+0x38>
      }
      release(&p->lock);
    8000268e:	8526                	mv	a0,s1
    80002690:	e60fe0ef          	jal	80000cf0 <release>
  for(p = proc; p < &proc[NPROC]; p++) {
    80002694:	2a048493          	addi	s1,s1,672
    80002698:	03248263          	beq	s1,s2,800026bc <wakeup+0x58>
    if(p != myproc()){
    8000269c:	993ff0ef          	jal	8000202e <myproc>
    800026a0:	fea48ae3          	beq	s1,a0,80002694 <wakeup+0x30>
      acquire(&p->lock);
    800026a4:	8526                	mv	a0,s1
    800026a6:	db2fe0ef          	jal	80000c58 <acquire>
      if(p->state == SLEEPING && p->chan == chan) {
    800026aa:	4c9c                	lw	a5,24(s1)
    800026ac:	ff3791e3          	bne	a5,s3,8000268e <wakeup+0x2a>
    800026b0:	709c                	ld	a5,32(s1)
    800026b2:	fd479ee3          	bne	a5,s4,8000268e <wakeup+0x2a>
        p->state = RUNNABLE;
    800026b6:	0154ac23          	sw	s5,24(s1)
    800026ba:	bfd1                	j	8000268e <wakeup+0x2a>
    }
  }
}
    800026bc:	70e2                	ld	ra,56(sp)
    800026be:	7442                	ld	s0,48(sp)
    800026c0:	74a2                	ld	s1,40(sp)
    800026c2:	7902                	ld	s2,32(sp)
    800026c4:	69e2                	ld	s3,24(sp)
    800026c6:	6a42                	ld	s4,16(sp)
    800026c8:	6aa2                	ld	s5,8(sp)
    800026ca:	6121                	addi	sp,sp,64
    800026cc:	8082                	ret

00000000800026ce <reparent>:
{
    800026ce:	7179                	addi	sp,sp,-48
    800026d0:	f406                	sd	ra,40(sp)
    800026d2:	f022                	sd	s0,32(sp)
    800026d4:	ec26                	sd	s1,24(sp)
    800026d6:	e84a                	sd	s2,16(sp)
    800026d8:	e44e                	sd	s3,8(sp)
    800026da:	e052                	sd	s4,0(sp)
    800026dc:	1800                	addi	s0,sp,48
    800026de:	892a                	mv	s2,a0
  for(pp = proc; pp < &proc[NPROC]; pp++){
    800026e0:	001a2497          	auipc	s1,0x1a2
    800026e4:	e0848493          	addi	s1,s1,-504 # 801a44e8 <proc>
      pp->parent = initproc;
    800026e8:	00006a17          	auipc	s4,0x6
    800026ec:	380a0a13          	addi	s4,s4,896 # 80008a68 <initproc>
  for(pp = proc; pp < &proc[NPROC]; pp++){
    800026f0:	001ac997          	auipc	s3,0x1ac
    800026f4:	5f898993          	addi	s3,s3,1528 # 801aece8 <proc_lock>
    800026f8:	a029                	j	80002702 <reparent+0x34>
    800026fa:	2a048493          	addi	s1,s1,672
    800026fe:	01348b63          	beq	s1,s3,80002714 <reparent+0x46>
    if(pp->parent == p){
    80002702:	7c9c                	ld	a5,56(s1)
    80002704:	ff279be3          	bne	a5,s2,800026fa <reparent+0x2c>
      pp->parent = initproc;
    80002708:	000a3503          	ld	a0,0(s4)
    8000270c:	fc88                	sd	a0,56(s1)
      wakeup(initproc);
    8000270e:	f57ff0ef          	jal	80002664 <wakeup>
    80002712:	b7e5                	j	800026fa <reparent+0x2c>
}
    80002714:	70a2                	ld	ra,40(sp)
    80002716:	7402                	ld	s0,32(sp)
    80002718:	64e2                	ld	s1,24(sp)
    8000271a:	6942                	ld	s2,16(sp)
    8000271c:	69a2                	ld	s3,8(sp)
    8000271e:	6a02                	ld	s4,0(sp)
    80002720:	6145                	addi	sp,sp,48
    80002722:	8082                	ret

0000000080002724 <exit>:
{
    80002724:	7179                	addi	sp,sp,-48
    80002726:	f406                	sd	ra,40(sp)
    80002728:	f022                	sd	s0,32(sp)
    8000272a:	ec26                	sd	s1,24(sp)
    8000272c:	e84a                	sd	s2,16(sp)
    8000272e:	e44e                	sd	s3,8(sp)
    80002730:	e052                	sd	s4,0(sp)
    80002732:	1800                	addi	s0,sp,48
    80002734:	8a2a                	mv	s4,a0
  struct proc *p = myproc();
    80002736:	8f9ff0ef          	jal	8000202e <myproc>
    8000273a:	89aa                	mv	s3,a0
  if(p == initproc)
    8000273c:	00006797          	auipc	a5,0x6
    80002740:	32c7b783          	ld	a5,812(a5) # 80008a68 <initproc>
    80002744:	0d850493          	addi	s1,a0,216
    80002748:	15850913          	addi	s2,a0,344
    8000274c:	00a79f63          	bne	a5,a0,8000276a <exit+0x46>
    panic("init exiting");
    80002750:	00006517          	auipc	a0,0x6
    80002754:	b8050513          	addi	a0,a0,-1152 # 800082d0 <etext+0x2d0>
    80002758:	8a0fe0ef          	jal	800007f8 <panic>
      fileclose(f);
    8000275c:	2c2020ef          	jal	80004a1e <fileclose>
      p->ofile[fd] = 0;
    80002760:	0004b023          	sd	zero,0(s1)
  for(int fd = 0; fd < NOFILE; fd++){
    80002764:	04a1                	addi	s1,s1,8
    80002766:	01248563          	beq	s1,s2,80002770 <exit+0x4c>
    if(p->ofile[fd]){
    8000276a:	6088                	ld	a0,0(s1)
    8000276c:	f965                	bnez	a0,8000275c <exit+0x38>
    8000276e:	bfdd                	j	80002764 <exit+0x40>
  begin_op();
    80002770:	695010ef          	jal	80004604 <begin_op>
  iput(p->cwd);
    80002774:	1589b503          	ld	a0,344(s3)
    80002778:	778010ef          	jal	80003ef0 <iput>
  end_op();
    8000277c:	6f3010ef          	jal	8000466e <end_op>
  p->cwd = 0;
    80002780:	1409bc23          	sd	zero,344(s3)
  acquire(&wait_lock);
    80002784:	001a2497          	auipc	s1,0x1a2
    80002788:	94c48493          	addi	s1,s1,-1716 # 801a40d0 <wait_lock>
    8000278c:	8526                	mv	a0,s1
    8000278e:	ccafe0ef          	jal	80000c58 <acquire>
  reparent(p);
    80002792:	854e                	mv	a0,s3
    80002794:	f3bff0ef          	jal	800026ce <reparent>
  wakeup(p->parent);
    80002798:	0389b503          	ld	a0,56(s3)
    8000279c:	ec9ff0ef          	jal	80002664 <wakeup>
  acquire(&p->lock);
    800027a0:	854e                	mv	a0,s3
    800027a2:	cb6fe0ef          	jal	80000c58 <acquire>
  p->xstate = status;
    800027a6:	0349a623          	sw	s4,44(s3)
  p->state = ZOMBIE;
    800027aa:	4795                	li	a5,5
    800027ac:	00f9ac23          	sw	a5,24(s3)
  release(&wait_lock);
    800027b0:	8526                	mv	a0,s1
    800027b2:	d3efe0ef          	jal	80000cf0 <release>
  sched();
    800027b6:	d7dff0ef          	jal	80002532 <sched>
  panic("zombie exit");
    800027ba:	00006517          	auipc	a0,0x6
    800027be:	b2650513          	addi	a0,a0,-1242 # 800082e0 <etext+0x2e0>
    800027c2:	836fe0ef          	jal	800007f8 <panic>

00000000800027c6 <kill>:
// Kill the process with the given pid.
// The victim won't exit until it tries to return
// to user space (see usertrap() in trap.c).
int
kill(int pid)
{
    800027c6:	7179                	addi	sp,sp,-48
    800027c8:	f406                	sd	ra,40(sp)
    800027ca:	f022                	sd	s0,32(sp)
    800027cc:	ec26                	sd	s1,24(sp)
    800027ce:	e84a                	sd	s2,16(sp)
    800027d0:	e44e                	sd	s3,8(sp)
    800027d2:	1800                	addi	s0,sp,48
    800027d4:	892a                	mv	s2,a0
  struct proc *p;

  for(p = proc; p < &proc[NPROC]; p++){
    800027d6:	001a2497          	auipc	s1,0x1a2
    800027da:	d1248493          	addi	s1,s1,-750 # 801a44e8 <proc>
    800027de:	001ac997          	auipc	s3,0x1ac
    800027e2:	50a98993          	addi	s3,s3,1290 # 801aece8 <proc_lock>
    acquire(&p->lock);
    800027e6:	8526                	mv	a0,s1
    800027e8:	c70fe0ef          	jal	80000c58 <acquire>
    if(p->pid == pid){
    800027ec:	589c                	lw	a5,48(s1)
    800027ee:	01278b63          	beq	a5,s2,80002804 <kill+0x3e>
        p->state = RUNNABLE;
      }
      release(&p->lock);
      return 0;
    }
    release(&p->lock);
    800027f2:	8526                	mv	a0,s1
    800027f4:	cfcfe0ef          	jal	80000cf0 <release>
  for(p = proc; p < &proc[NPROC]; p++){
    800027f8:	2a048493          	addi	s1,s1,672
    800027fc:	ff3495e3          	bne	s1,s3,800027e6 <kill+0x20>
  }
  return -1;
    80002800:	557d                	li	a0,-1
    80002802:	a819                	j	80002818 <kill+0x52>
      p->killed = 1;
    80002804:	4785                	li	a5,1
    80002806:	d49c                	sw	a5,40(s1)
      if(p->state == SLEEPING){
    80002808:	4c98                	lw	a4,24(s1)
    8000280a:	4789                	li	a5,2
    8000280c:	00f70d63          	beq	a4,a5,80002826 <kill+0x60>
      release(&p->lock);
    80002810:	8526                	mv	a0,s1
    80002812:	cdefe0ef          	jal	80000cf0 <release>
      return 0;
    80002816:	4501                	li	a0,0
}
    80002818:	70a2                	ld	ra,40(sp)
    8000281a:	7402                	ld	s0,32(sp)
    8000281c:	64e2                	ld	s1,24(sp)
    8000281e:	6942                	ld	s2,16(sp)
    80002820:	69a2                	ld	s3,8(sp)
    80002822:	6145                	addi	sp,sp,48
    80002824:	8082                	ret
        p->state = RUNNABLE;
    80002826:	478d                	li	a5,3
    80002828:	cc9c                	sw	a5,24(s1)
    8000282a:	b7dd                	j	80002810 <kill+0x4a>

000000008000282c <setkilled>:

void
setkilled(struct proc *p)
{
    8000282c:	1101                	addi	sp,sp,-32
    8000282e:	ec06                	sd	ra,24(sp)
    80002830:	e822                	sd	s0,16(sp)
    80002832:	e426                	sd	s1,8(sp)
    80002834:	1000                	addi	s0,sp,32
    80002836:	84aa                	mv	s1,a0
  acquire(&p->lock);
    80002838:	c20fe0ef          	jal	80000c58 <acquire>
  p->killed = 1;
    8000283c:	4785                	li	a5,1
    8000283e:	d49c                	sw	a5,40(s1)
  release(&p->lock);
    80002840:	8526                	mv	a0,s1
    80002842:	caefe0ef          	jal	80000cf0 <release>
}
    80002846:	60e2                	ld	ra,24(sp)
    80002848:	6442                	ld	s0,16(sp)
    8000284a:	64a2                	ld	s1,8(sp)
    8000284c:	6105                	addi	sp,sp,32
    8000284e:	8082                	ret

0000000080002850 <killed>:

int
killed(struct proc *p)
{
    80002850:	1101                	addi	sp,sp,-32
    80002852:	ec06                	sd	ra,24(sp)
    80002854:	e822                	sd	s0,16(sp)
    80002856:	e426                	sd	s1,8(sp)
    80002858:	e04a                	sd	s2,0(sp)
    8000285a:	1000                	addi	s0,sp,32
    8000285c:	84aa                	mv	s1,a0
  int k;
  
  acquire(&p->lock);
    8000285e:	bfafe0ef          	jal	80000c58 <acquire>
  k = p->killed;
    80002862:	0284a903          	lw	s2,40(s1)
  release(&p->lock);
    80002866:	8526                	mv	a0,s1
    80002868:	c88fe0ef          	jal	80000cf0 <release>
  return k;
}
    8000286c:	854a                	mv	a0,s2
    8000286e:	60e2                	ld	ra,24(sp)
    80002870:	6442                	ld	s0,16(sp)
    80002872:	64a2                	ld	s1,8(sp)
    80002874:	6902                	ld	s2,0(sp)
    80002876:	6105                	addi	sp,sp,32
    80002878:	8082                	ret

000000008000287a <wait>:
{
    8000287a:	715d                	addi	sp,sp,-80
    8000287c:	e486                	sd	ra,72(sp)
    8000287e:	e0a2                	sd	s0,64(sp)
    80002880:	fc26                	sd	s1,56(sp)
    80002882:	f84a                	sd	s2,48(sp)
    80002884:	f44e                	sd	s3,40(sp)
    80002886:	f052                	sd	s4,32(sp)
    80002888:	ec56                	sd	s5,24(sp)
    8000288a:	e85a                	sd	s6,16(sp)
    8000288c:	e45e                	sd	s7,8(sp)
    8000288e:	e062                	sd	s8,0(sp)
    80002890:	0880                	addi	s0,sp,80
    80002892:	8b2a                	mv	s6,a0
  struct proc *p = myproc();
    80002894:	f9aff0ef          	jal	8000202e <myproc>
    80002898:	892a                	mv	s2,a0
  acquire(&wait_lock);
    8000289a:	001a2517          	auipc	a0,0x1a2
    8000289e:	83650513          	addi	a0,a0,-1994 # 801a40d0 <wait_lock>
    800028a2:	bb6fe0ef          	jal	80000c58 <acquire>
    havekids = 0;
    800028a6:	4b81                	li	s7,0
        if(pp->state == ZOMBIE){
    800028a8:	4a15                	li	s4,5
        havekids = 1;
    800028aa:	4a85                	li	s5,1
    for(pp = proc; pp < &proc[NPROC]; pp++){
    800028ac:	001ac997          	auipc	s3,0x1ac
    800028b0:	43c98993          	addi	s3,s3,1084 # 801aece8 <proc_lock>
    sleep(p, &wait_lock);  //DOC: wait-sleep
    800028b4:	001a2c17          	auipc	s8,0x1a2
    800028b8:	81cc0c13          	addi	s8,s8,-2020 # 801a40d0 <wait_lock>
    800028bc:	a871                	j	80002958 <wait+0xde>
          pid = pp->pid;
    800028be:	0304a983          	lw	s3,48(s1)
          if(addr != 0 && copyout(p->pagetable, addr, (char *)&pp->xstate,
    800028c2:	000b0c63          	beqz	s6,800028da <wait+0x60>
    800028c6:	4691                	li	a3,4
    800028c8:	02c48613          	addi	a2,s1,44
    800028cc:	85da                	mv	a1,s6
    800028ce:	05893503          	ld	a0,88(s2)
    800028d2:	baaff0ef          	jal	80001c7c <copyout>
    800028d6:	02054b63          	bltz	a0,8000290c <wait+0x92>
          freeproc(pp);
    800028da:	8526                	mv	a0,s1
    800028dc:	8c5ff0ef          	jal	800021a0 <freeproc>
          release(&pp->lock);
    800028e0:	8526                	mv	a0,s1
    800028e2:	c0efe0ef          	jal	80000cf0 <release>
          release(&wait_lock);
    800028e6:	001a1517          	auipc	a0,0x1a1
    800028ea:	7ea50513          	addi	a0,a0,2026 # 801a40d0 <wait_lock>
    800028ee:	c02fe0ef          	jal	80000cf0 <release>
}
    800028f2:	854e                	mv	a0,s3
    800028f4:	60a6                	ld	ra,72(sp)
    800028f6:	6406                	ld	s0,64(sp)
    800028f8:	74e2                	ld	s1,56(sp)
    800028fa:	7942                	ld	s2,48(sp)
    800028fc:	79a2                	ld	s3,40(sp)
    800028fe:	7a02                	ld	s4,32(sp)
    80002900:	6ae2                	ld	s5,24(sp)
    80002902:	6b42                	ld	s6,16(sp)
    80002904:	6ba2                	ld	s7,8(sp)
    80002906:	6c02                	ld	s8,0(sp)
    80002908:	6161                	addi	sp,sp,80
    8000290a:	8082                	ret
            release(&pp->lock);
    8000290c:	8526                	mv	a0,s1
    8000290e:	be2fe0ef          	jal	80000cf0 <release>
            release(&wait_lock);
    80002912:	001a1517          	auipc	a0,0x1a1
    80002916:	7be50513          	addi	a0,a0,1982 # 801a40d0 <wait_lock>
    8000291a:	bd6fe0ef          	jal	80000cf0 <release>
            return -1;
    8000291e:	59fd                	li	s3,-1
    80002920:	bfc9                	j	800028f2 <wait+0x78>
    for(pp = proc; pp < &proc[NPROC]; pp++){
    80002922:	2a048493          	addi	s1,s1,672
    80002926:	03348063          	beq	s1,s3,80002946 <wait+0xcc>
      if(pp->parent == p){
    8000292a:	7c9c                	ld	a5,56(s1)
    8000292c:	ff279be3          	bne	a5,s2,80002922 <wait+0xa8>
        acquire(&pp->lock);
    80002930:	8526                	mv	a0,s1
    80002932:	b26fe0ef          	jal	80000c58 <acquire>
        if(pp->state == ZOMBIE){
    80002936:	4c9c                	lw	a5,24(s1)
    80002938:	f94783e3          	beq	a5,s4,800028be <wait+0x44>
        release(&pp->lock);
    8000293c:	8526                	mv	a0,s1
    8000293e:	bb2fe0ef          	jal	80000cf0 <release>
        havekids = 1;
    80002942:	8756                	mv	a4,s5
    80002944:	bff9                	j	80002922 <wait+0xa8>
    if(!havekids || killed(p)){
    80002946:	cf19                	beqz	a4,80002964 <wait+0xea>
    80002948:	854a                	mv	a0,s2
    8000294a:	f07ff0ef          	jal	80002850 <killed>
    8000294e:	e919                	bnez	a0,80002964 <wait+0xea>
    sleep(p, &wait_lock);  //DOC: wait-sleep
    80002950:	85e2                	mv	a1,s8
    80002952:	854a                	mv	a0,s2
    80002954:	cc5ff0ef          	jal	80002618 <sleep>
    havekids = 0;
    80002958:	875e                	mv	a4,s7
    for(pp = proc; pp < &proc[NPROC]; pp++){
    8000295a:	001a2497          	auipc	s1,0x1a2
    8000295e:	b8e48493          	addi	s1,s1,-1138 # 801a44e8 <proc>
    80002962:	b7e1                	j	8000292a <wait+0xb0>
      release(&wait_lock);
    80002964:	001a1517          	auipc	a0,0x1a1
    80002968:	76c50513          	addi	a0,a0,1900 # 801a40d0 <wait_lock>
    8000296c:	b84fe0ef          	jal	80000cf0 <release>
      return -1;
    80002970:	59fd                	li	s3,-1
    80002972:	b741                	j	800028f2 <wait+0x78>

0000000080002974 <either_copyout>:
// Copy to either a user address, or kernel address,
// depending on usr_dst.
// Returns 0 on success, -1 on error.
int
either_copyout(int user_dst, uint64 dst, void *src, uint64 len)
{
    80002974:	7179                	addi	sp,sp,-48
    80002976:	f406                	sd	ra,40(sp)
    80002978:	f022                	sd	s0,32(sp)
    8000297a:	ec26                	sd	s1,24(sp)
    8000297c:	e84a                	sd	s2,16(sp)
    8000297e:	e44e                	sd	s3,8(sp)
    80002980:	e052                	sd	s4,0(sp)
    80002982:	1800                	addi	s0,sp,48
    80002984:	84aa                	mv	s1,a0
    80002986:	892e                	mv	s2,a1
    80002988:	89b2                	mv	s3,a2
    8000298a:	8a36                	mv	s4,a3
  struct proc *p = myproc();
    8000298c:	ea2ff0ef          	jal	8000202e <myproc>
  if(user_dst){
    80002990:	cc99                	beqz	s1,800029ae <either_copyout+0x3a>
    return copyout(p->pagetable, dst, src, len);
    80002992:	86d2                	mv	a3,s4
    80002994:	864e                	mv	a2,s3
    80002996:	85ca                	mv	a1,s2
    80002998:	6d28                	ld	a0,88(a0)
    8000299a:	ae2ff0ef          	jal	80001c7c <copyout>
  } else {
    memmove((char *)dst, src, len);
    return 0;
  }
}
    8000299e:	70a2                	ld	ra,40(sp)
    800029a0:	7402                	ld	s0,32(sp)
    800029a2:	64e2                	ld	s1,24(sp)
    800029a4:	6942                	ld	s2,16(sp)
    800029a6:	69a2                	ld	s3,8(sp)
    800029a8:	6a02                	ld	s4,0(sp)
    800029aa:	6145                	addi	sp,sp,48
    800029ac:	8082                	ret
    memmove((char *)dst, src, len);
    800029ae:	000a061b          	sext.w	a2,s4
    800029b2:	85ce                	mv	a1,s3
    800029b4:	854a                	mv	a0,s2
    800029b6:	bd2fe0ef          	jal	80000d88 <memmove>
    return 0;
    800029ba:	8526                	mv	a0,s1
    800029bc:	b7cd                	j	8000299e <either_copyout+0x2a>

00000000800029be <either_copyin>:
// Copy from either a user address, or kernel address,
// depending on usr_src.
// Returns 0 on success, -1 on error.
int
either_copyin(void *dst, int user_src, uint64 src, uint64 len)
{
    800029be:	7179                	addi	sp,sp,-48
    800029c0:	f406                	sd	ra,40(sp)
    800029c2:	f022                	sd	s0,32(sp)
    800029c4:	ec26                	sd	s1,24(sp)
    800029c6:	e84a                	sd	s2,16(sp)
    800029c8:	e44e                	sd	s3,8(sp)
    800029ca:	e052                	sd	s4,0(sp)
    800029cc:	1800                	addi	s0,sp,48
    800029ce:	892a                	mv	s2,a0
    800029d0:	84ae                	mv	s1,a1
    800029d2:	89b2                	mv	s3,a2
    800029d4:	8a36                	mv	s4,a3
  struct proc *p = myproc();
    800029d6:	e58ff0ef          	jal	8000202e <myproc>
  if(user_src){
    800029da:	cc99                	beqz	s1,800029f8 <either_copyin+0x3a>
    return copyin(p->pagetable, dst, src, len);
    800029dc:	86d2                	mv	a3,s4
    800029de:	864e                	mv	a2,s3
    800029e0:	85ca                	mv	a1,s2
    800029e2:	6d28                	ld	a0,88(a0)
    800029e4:	b6eff0ef          	jal	80001d52 <copyin>
  } else {
    memmove(dst, (char*)src, len);
    return 0;
  }
}
    800029e8:	70a2                	ld	ra,40(sp)
    800029ea:	7402                	ld	s0,32(sp)
    800029ec:	64e2                	ld	s1,24(sp)
    800029ee:	6942                	ld	s2,16(sp)
    800029f0:	69a2                	ld	s3,8(sp)
    800029f2:	6a02                	ld	s4,0(sp)
    800029f4:	6145                	addi	sp,sp,48
    800029f6:	8082                	ret
    memmove(dst, (char*)src, len);
    800029f8:	000a061b          	sext.w	a2,s4
    800029fc:	85ce                	mv	a1,s3
    800029fe:	854a                	mv	a0,s2
    80002a00:	b88fe0ef          	jal	80000d88 <memmove>
    return 0;
    80002a04:	8526                	mv	a0,s1
    80002a06:	b7cd                	j	800029e8 <either_copyin+0x2a>

0000000080002a08 <procdump>:
// Print a process listing to console.  For debugging.
// Runs when user types ^P on console.
// No lock to avoid wedging a stuck machine further.
void
procdump(void)
{
    80002a08:	715d                	addi	sp,sp,-80
    80002a0a:	e486                	sd	ra,72(sp)
    80002a0c:	e0a2                	sd	s0,64(sp)
    80002a0e:	fc26                	sd	s1,56(sp)
    80002a10:	f84a                	sd	s2,48(sp)
    80002a12:	f44e                	sd	s3,40(sp)
    80002a14:	f052                	sd	s4,32(sp)
    80002a16:	ec56                	sd	s5,24(sp)
    80002a18:	e85a                	sd	s6,16(sp)
    80002a1a:	e45e                	sd	s7,8(sp)
    80002a1c:	0880                	addi	s0,sp,80
  [ZOMBIE]    "zombie"
  };
  struct proc *p;
  char *state;

  printf("\n");
    80002a1e:	00005517          	auipc	a0,0x5
    80002a22:	68a50513          	addi	a0,a0,1674 # 800080a8 <etext+0xa8>
    80002a26:	b01fd0ef          	jal	80000526 <printf>
  for(p = proc; p < &proc[NPROC]; p++){
    80002a2a:	001a2497          	auipc	s1,0x1a2
    80002a2e:	c1e48493          	addi	s1,s1,-994 # 801a4648 <proc+0x160>
    80002a32:	001ac917          	auipc	s2,0x1ac
    80002a36:	41690913          	addi	s2,s2,1046 # 801aee48 <bcache+0x130>
    if(p->state == UNUSED)
      continue;
    if(p->state >= 0 && p->state < NELEM(states) && states[p->state])
    80002a3a:	4b15                	li	s6,5
      state = states[p->state];
    else
      state = "???";
    80002a3c:	00006997          	auipc	s3,0x6
    80002a40:	8b498993          	addi	s3,s3,-1868 # 800082f0 <etext+0x2f0>
    printf("%d %s %s", p->pid, state, p->name);
    80002a44:	00006a97          	auipc	s5,0x6
    80002a48:	8b4a8a93          	addi	s5,s5,-1868 # 800082f8 <etext+0x2f8>
    printf("\n");
    80002a4c:	00005a17          	auipc	s4,0x5
    80002a50:	65ca0a13          	addi	s4,s4,1628 # 800080a8 <etext+0xa8>
    if(p->state >= 0 && p->state < NELEM(states) && states[p->state])
    80002a54:	00006b97          	auipc	s7,0x6
    80002a58:	e54b8b93          	addi	s7,s7,-428 # 800088a8 <states.0>
    80002a5c:	a829                	j	80002a76 <procdump+0x6e>
    printf("%d %s %s", p->pid, state, p->name);
    80002a5e:	ed06a583          	lw	a1,-304(a3)
    80002a62:	8556                	mv	a0,s5
    80002a64:	ac3fd0ef          	jal	80000526 <printf>
    printf("\n");
    80002a68:	8552                	mv	a0,s4
    80002a6a:	abdfd0ef          	jal	80000526 <printf>
  for(p = proc; p < &proc[NPROC]; p++){
    80002a6e:	2a048493          	addi	s1,s1,672
    80002a72:	03248263          	beq	s1,s2,80002a96 <procdump+0x8e>
    if(p->state == UNUSED)
    80002a76:	86a6                	mv	a3,s1
    80002a78:	eb84a783          	lw	a5,-328(s1)
    80002a7c:	dbed                	beqz	a5,80002a6e <procdump+0x66>
      state = "???";
    80002a7e:	864e                	mv	a2,s3
    if(p->state >= 0 && p->state < NELEM(states) && states[p->state])
    80002a80:	fcfb6fe3          	bltu	s6,a5,80002a5e <procdump+0x56>
    80002a84:	02079713          	slli	a4,a5,0x20
    80002a88:	01d75793          	srli	a5,a4,0x1d
    80002a8c:	97de                	add	a5,a5,s7
    80002a8e:	6390                	ld	a2,0(a5)
    80002a90:	f679                	bnez	a2,80002a5e <procdump+0x56>
      state = "???";
    80002a92:	864e                	mv	a2,s3
